(dp1
S'files'
p2
(dp3
S'_Users_graememaciver_Projects_GM07-KeyStore_venv_lib_python2_7_site-packages_django_db_backends_signals'
p4
(dp5
S'index'
p6
(dp7
S'html_filename'
p8
S'_Users_graememaciver_Projects_GM07-KeyStore_venv_lib_python2_7_site-packages_django_db_backends_signals.html'
p9
sS'name'
p10
S'/Users/graememaciver/Projects/GM07-KeyStore/venv/lib/python2.7/site-packages/django/db/backends/signals'
p11
sS'nums'
p12
ccopy_reg
_reconstructor
p13
(ccoverage.results
Numbers
p14
c__builtin__
object
p15
NtRp16
(dp17
S'n_files'
p18
I1
sS'n_branches'
p19
I0
sS'n_statements'
p20
I2
sS'n_excluded'
p21
I0
sS'n_partial_branches'
p22
I0
sS'n_missing'
p23
I0
sS'n_missing_branches'
p24
I0
sbssS'hash'
p25
S'\xac\xe8\xc0\xe9\x8a\xd9d\xcc\x03\xc1\x89\xd4\xde\xa8x<'
p26
ssS'_Users_graememaciver_Projects_GM07-KeyStore_venv_lib_python2_7_site-packages_django_core_mail_message'
p27
(dp28
g6
(dp29
g8
S'_Users_graememaciver_Projects_GM07-KeyStore_venv_lib_python2_7_site-packages_django_core_mail_message.html'
p30
sg10
S'/Users/graememaciver/Projects/GM07-KeyStore/venv/lib/python2.7/site-packages/django/core/mail/message'
p31
sg12
g13
(g14
g15
NtRp32
(dp33
g18
I1
sg19
I0
sg20
I217
sg21
I0
sg22
I0
sg23
I163
sg24
I0
sbssg25
S'\xd7mL\xc3\xcf\x9bC\xd2\x02P\x19\xf7TF\xc3\xc2'
p34
ssS'_Users_graememaciver_Projects_GM07-KeyStore_venv_lib_python2_7_site-packages_django_utils_functional'
p35
(dp36
g6
(dp37
g8
S'_Users_graememaciver_Projects_GM07-KeyStore_venv_lib_python2_7_site-packages_django_utils_functional.html'
p38
sg10
S'/Users/graememaciver/Projects/GM07-KeyStore/venv/lib/python2.7/site-packages/django/utils/functional'
p39
sg12
g13
(g14
g15
NtRp40
(dp41
g18
I1
sg19
I0
sg20
I207
sg21
I0
sg22
I0
sg23
I93
sg24
I0
sbssg25
S'r\x82\x0c\x8e\x04\x8b\xc9C\xcb:o\\I\xc7%\x91'
p42
ssS'_Users_graememaciver_Projects_GM07-KeyStore_venv_lib_python2_7_site-packages_django_template_defaultfilters'
p43
(dp44
g6
(dp45
g8
S'_Users_graememaciver_Projects_GM07-KeyStore_venv_lib_python2_7_site-packages_django_template_defaultfilters.html'
p46
sg10
S'/Users/graememaciver/Projects/GM07-KeyStore/venv/lib/python2.7/site-packages/django/template/defaultfilters'
p47
sg12
g13
(g14
g15
NtRp48
(dp49
g18
I1
sg19
I0
sg20
I458
sg21
I0
sg22
I0
sg23
I325
sg24
I0
sbssg25
S'\xab\xd6\xa2\x95Sa\x85\xe4\x8adp\xd1\x1eu\xcaB'
p50
ssS'_Users_graememaciver_Projects_GM07-KeyStore_venv_lib_python2_7_site-packages_social_auth_utils'
p51
(dp52
g6
(dp53
g8
S'_Users_graememaciver_Projects_GM07-KeyStore_venv_lib_python2_7_site-packages_social_auth_utils.html'
p54
sg10
S'/Users/graememaciver/Projects/GM07-KeyStore/venv/lib/python2.7/site-packages/social_auth/utils'
p55
sg12
g13
(g14
g15
NtRp56
(dp57
g18
I1
sg19
I0
sg20
I153
sg21
I0
sg22
I0
sg23
I94
sg24
I0
sbssg25
S'\x05\x05\x98k\xe9?\x04\x19\x9b\x06e\xa34\xbdC '
p58
ssS'_Users_graememaciver_Projects_GM07-KeyStore_venv_lib_python2_7_site-packages_django_core_servers___init__'
p59
(dp60
g6
(dp61
g8
S'_Users_graememaciver_Projects_GM07-KeyStore_venv_lib_python2_7_site-packages_django_core_servers___init__.html'
p62
sg10
S'/Users/graememaciver/Projects/GM07-KeyStore/venv/lib/python2.7/site-packages/django/core/servers/__init__'
p63
sg12
g13
(g14
g15
NtRp64
(dp65
g18
I1
sg19
I0
sg20
I0
sg21
I0
sg22
I0
sg23
I0
sg24
I0
sbssg25
S'\xb0\xc8pN\xaf>\xa0\xbaz\x144\xe0A9\xb8?'
p66
ssS'_Users_graememaciver_Projects_GM07-KeyStore_venv_lib_python2_7_site-packages_django_core_serializers_python'
p67
(dp68
g6
(dp69
g8
S'_Users_graememaciver_Projects_GM07-KeyStore_venv_lib_python2_7_site-packages_django_core_serializers_python.html'
p70
sg10
S'/Users/graememaciver/Projects/GM07-KeyStore/venv/lib/python2.7/site-packages/django/core/serializers/python'
p71
sg12
g13
(g14
g15
NtRp72
(dp73
g18
I1
sg19
I0
sg20
I86
sg21
I0
sg22
I0
sg23
I67
sg24
I0
sbssg25
S"\xcf\xb3s\n\xa1\x83\xbc\xc1\xe4W\xfe2'\xb9b\xce"
p74
ssS'_Users_graememaciver_Projects_GM07-KeyStore_venv_lib_python2_7_site-packages_django_utils_module_loading'
p75
(dp76
g6
(dp77
g8
S'_Users_graememaciver_Projects_GM07-KeyStore_venv_lib_python2_7_site-packages_django_utils_module_loading.html'
p78
sg10
S'/Users/graememaciver/Projects/GM07-KeyStore/venv/lib/python2.7/site-packages/django/utils/module_loading'
p79
sg12
g13
(g14
g15
NtRp80
(dp81
g18
I1
sg19
I0
sg20
I66
sg21
I0
sg22
I0
sg23
I58
sg24
I0
sbssg25
S'-5\xe0\xda\xf2h9\xe6\xd9\x89hR\x12\xa5\xddm'
p82
ssS'_Users_graememaciver_Projects_GM07-KeyStore_venv_lib_python2_7_site-packages_social_auth_fields'
p83
(dp84
g6
(dp85
g8
S'_Users_graememaciver_Projects_GM07-KeyStore_venv_lib_python2_7_site-packages_social_auth_fields.html'
p86
sg10
S'/Users/graememaciver/Projects/GM07-KeyStore/venv/lib/python2.7/site-packages/social_auth/fields'
p87
sg12
g13
(g14
g15
NtRp88
(dp89
g18
I1
sg19
I0
sg20
I36
sg21
I0
sg22
I0
sg23
I22
sg24
I0
sbssg25
S'B6s\xcby\x83:d\x8cu\r6x\xa5uM'
p90
ssS'_Users_graememaciver_Projects_GM07-KeyStore_venv_lib_python2_7_site-packages_django_forms_widgets'
p91
(dp92
g6
(dp93
g8
S'_Users_graememaciver_Projects_GM07-KeyStore_venv_lib_python2_7_site-packages_django_forms_widgets.html'
p94
sg10
S'/Users/graememaciver/Projects/GM07-KeyStore/venv/lib/python2.7/site-packages/django/forms/widgets'
p95
sg12
g13
(g14
g15
NtRp96
(dp97
g18
I1
sg19
I0
sg20
I565
sg21
I0
sg22
I0
sg23
I381
sg24
I0
sbssg25
S'\xc2\xe2\x9a#S\xb5\xc0^\n\xdeM%\x8e\x10\x0e\x1a'
p98
ssS'_Users_graememaciver_Projects_GM07-KeyStore_venv_lib_python2_7_site-packages_django_db_models_query'
p99
(dp100
g6
(dp101
g8
S'_Users_graememaciver_Projects_GM07-KeyStore_venv_lib_python2_7_site-packages_django_db_models_query.html'
p102
sg10
S'/Users/graememaciver/Projects/GM07-KeyStore/venv/lib/python2.7/site-packages/django/db/models/query'
p103
sg12
g13
(g14
g15
NtRp104
(dp105
g18
I1
sg19
I0
sg20
I973
sg21
I0
sg22
I0
sg23
I651
sg24
I0
sbssg25
S'\x01\x9a\xe3\xaeV\xd2\xe1\xf5\xe8\xf8\x06\x16\x12H\xa4\xb3'
p106
ssS'_Users_graememaciver_Projects_GM07-KeyStore_venv_lib_python2_7_site-packages_django_utils___init__'
p107
(dp108
g6
(dp109
g8
S'_Users_graememaciver_Projects_GM07-KeyStore_venv_lib_python2_7_site-packages_django_utils___init__.html'
p110
sg10
S'/Users/graememaciver/Projects/GM07-KeyStore/venv/lib/python2.7/site-packages/django/utils/__init__'
p111
sg12
g13
(g14
g15
NtRp112
(dp113
g18
I1
sg19
I0
sg20
I0
sg21
I0
sg22
I0
sg23
I0
sg24
I0
sbssg25
S'\xb0\xc8pN\xaf>\xa0\xbaz\x144\xe0A9\xb8?'
p114
ssS'_Users_graememaciver_Projects_GM07-KeyStore_venv_lib_python2_7_site-packages_django_db_models_loading'
p115
(dp116
g6
(dp117
g8
S'_Users_graememaciver_Projects_GM07-KeyStore_venv_lib_python2_7_site-packages_django_db_models_loading.html'
p118
sg10
S'/Users/graememaciver/Projects/GM07-KeyStore/venv/lib/python2.7/site-packages/django/db/models/loading'
p119
sg12
g13
(g14
g15
NtRp120
(dp121
g18
I1
sg19
I0
sg20
I121
sg21
I0
sg22
I0
sg23
I21
sg24
I0
sbssg25
S'\xa2\xc0_xE\x0b\xc4t;\xcf&\x83oRz\x94'
p122
ssS'_Users_graememaciver_Projects_GM07-KeyStore_venv_lib_python2_7_site-packages_django_contrib_staticfiles_handlers'
p123
(dp124
g6
(dp125
g8
S'_Users_graememaciver_Projects_GM07-KeyStore_venv_lib_python2_7_site-packages_django_contrib_staticfiles_handlers.html'
p126
sg10
S'/Users/graememaciver/Projects/GM07-KeyStore/venv/lib/python2.7/site-packages/django/contrib/staticfiles/handlers'
p127
sg12
g13
(g14
g15
NtRp128
(dp129
g18
I1
sg19
I0
sg20
I45
sg21
I0
sg22
I0
sg23
I26
sg24
I0
sbssg25
S"\x91'\x19\xf0H\xe9n\xb6\xf4\xb7j\xe8\x82I_]"
p130
ssS'_Users_graememaciver_Projects_GM07-KeyStore_venv_lib_python2_7_site-packages_django_db_backends___init__'
p131
(dp132
g6
(dp133
g8
S'_Users_graememaciver_Projects_GM07-KeyStore_venv_lib_python2_7_site-packages_django_db_backends___init__.html'
p134
sg10
S'/Users/graememaciver/Projects/GM07-KeyStore/venv/lib/python2.7/site-packages/django/db/backends/__init__'
p135
sg12
g13
(g14
g15
NtRp136
(dp137
g18
I1
sg19
I0
sg20
I451
sg21
I0
sg22
I0
sg23
I166
sg24
I0
sbssg25
S'\xb5\xf9\xb0\xcc\xc1\xb1\xd4\x10F\xd1\xf2\xa1i4K\x1f'
p138
ssS'_Users_graememaciver_Projects_GM07-KeyStore_venv_lib_python2_7_site-packages_django_utils_timezone'
p139
(dp140
g6
(dp141
g8
S'_Users_graememaciver_Projects_GM07-KeyStore_venv_lib_python2_7_site-packages_django_utils_timezone.html'
p142
sg10
S'/Users/graememaciver/Projects/GM07-KeyStore/venv/lib/python2.7/site-packages/django/utils/timezone'
p143
sg12
g13
(g14
g15
NtRp144
(dp145
g18
I1
sg19
I0
sg20
I114
sg21
I0
sg22
I0
sg23
I65
sg24
I0
sbssg25
S'\x16\x19\xfc#\xb1\xc7\xa7`\xc9\xa3\x90\x13U\xb2\xbb\x0b'
p146
ssS'_Users_graememaciver_Projects_GM07-KeyStore_venv_lib_python2_7_site-packages_django_conf_global_settings'
p147
(dp148
g6
(dp149
g8
S'_Users_graememaciver_Projects_GM07-KeyStore_venv_lib_python2_7_site-packages_django_conf_global_settings.html'
p150
sg10
S'/Users/graememaciver/Projects/GM07-KeyStore/venv/lib/python2.7/site-packages/django/conf/global_settings'
p151
sg12
g13
(g14
g15
NtRp152
(dp153
g18
I1
sg19
I0
sg20
I120
sg21
I0
sg22
I0
sg23
I0
sg24
I0
sbssg25
S'\x8f\xb1\xc1\xf1\x9c^\x19\x84\xe4\xc0\x17\xe1\x85\xa1q}'
p154
ssS'_Users_graememaciver_Projects_GM07-KeyStore_venv_lib_python2_7_site-packages_django_utils_tzinfo'
p155
(dp156
g6
(dp157
g8
S'_Users_graememaciver_Projects_GM07-KeyStore_venv_lib_python2_7_site-packages_django_utils_tzinfo.html'
p158
sg10
S'/Users/graememaciver/Projects/GM07-KeyStore/venv/lib/python2.7/site-packages/django/utils/tzinfo'
p159
sg12
g13
(g14
g15
NtRp160
(dp161
g18
I1
sg19
I0
sg20
I53
sg21
I0
sg22
I0
sg23
I34
sg24
I0
sbssg25
S'o\xd9[\xd8\xee.\xb3U\x02\x1aM~!Ug\x83'
p162
ssS'_Users_graememaciver_Projects_GM07-KeyStore_venv_lib_python2_7_site-packages_django_contrib_auth_tokens'
p163
(dp164
g6
(dp165
g8
S'_Users_graememaciver_Projects_GM07-KeyStore_venv_lib_python2_7_site-packages_django_contrib_auth_tokens.html'
p166
sg10
S'/Users/graememaciver/Projects/GM07-KeyStore/venv/lib/python2.7/site-packages/django/contrib/auth/tokens'
p167
sg12
g13
(g14
g15
NtRp168
(dp169
g18
I1
sg19
I0
sg20
I34
sg21
I0
sg22
I0
sg23
I22
sg24
I0
sbssg25
S'\xd1\xd4\x9e\xff2}]\xe5\x00\xf9\xfe\x868\xa6\x92+'
p170
ssS'_Users_graememaciver_Projects_GM07-KeyStore_venv_lib_python2_7_site-packages_django_contrib_messages_models'
p171
(dp172
g6
(dp173
g8
S'_Users_graememaciver_Projects_GM07-KeyStore_venv_lib_python2_7_site-packages_django_contrib_messages_models.html'
p174
sg10
S'/Users/graememaciver/Projects/GM07-KeyStore/venv/lib/python2.7/site-packages/django/contrib/messages/models'
p175
sg12
g13
(g14
g15
NtRp176
(dp177
g18
I1
sg19
I0
sg20
I0
sg21
I0
sg22
I0
sg23
I0
sg24
I0
sbssg25
S'}\xf8)\x98N\x1e\xef\xd8Ky\x9f\x03d\x14L\xac'
p178
ssS'settings_development'
p179
(dp180
g6
(dp181
g8
S'settings_development.html'
p182
sg10
S'settings/development'
p183
sg12
g13
(g14
g15
NtRp184
(dp185
g18
I1
sg19
I0
sg20
I40
sg21
I0
sg22
I0
sg23
I0
sg24
I0
sbssg25
S'\x15\x0e\x16H$\xc1\xeb=-\xb7\xb83^\x18p\x91'
p186
ssS'_Users_graememaciver_Projects_GM07-KeyStore_venv_lib_python2_7_site-packages_django_middleware_csrf'
p187
(dp188
g6
(dp189
g8
S'_Users_graememaciver_Projects_GM07-KeyStore_venv_lib_python2_7_site-packages_django_middleware_csrf.html'
p190
sg10
S'/Users/graememaciver/Projects/GM07-KeyStore/venv/lib/python2.7/site-packages/django/middleware/csrf'
p191
sg12
g13
(g14
g15
NtRp192
(dp193
g18
I1
sg19
I0
sg20
I86
sg21
I0
sg22
I0
sg23
I59
sg24
I0
sbssg25
S'*h*\x02\xffb[\xf68YG[\x05\x97\x11\x15'
p194
ssS'_Users_graememaciver_Projects_GM07-KeyStore_venv_lib_python2_7_site-packages_django_test__doctest'
p195
(dp196
g6
(dp197
g8
S'_Users_graememaciver_Projects_GM07-KeyStore_venv_lib_python2_7_site-packages_django_test__doctest.html'
p198
sg10
S'/Users/graememaciver/Projects/GM07-KeyStore/venv/lib/python2.7/site-packages/django/test/_doctest'
p199
sg12
g13
(g14
g15
NtRp200
(dp201
g18
I1
sg19
I0
sg20
I944
sg21
I0
sg22
I0
sg23
I793
sg24
I0
sbssg25
S'Xs\x95\xda\xc7a\x9f\xc3Nm|\x03\x14\x18\\\xf2'
p202
ssS'_Users_graememaciver_Projects_GM07-KeyStore_venv_lib_python2_7_site-packages_django_template_loader'
p203
(dp204
g6
(dp205
g8
S'_Users_graememaciver_Projects_GM07-KeyStore_venv_lib_python2_7_site-packages_django_template_loader.html'
p206
sg10
S'/Users/graememaciver/Projects/GM07-KeyStore/venv/lib/python2.7/site-packages/django/template/loader'
p207
sg12
g13
(g14
g15
NtRp208
(dp209
g18
I1
sg19
I0
sg20
I105
sg21
I0
sg22
I0
sg23
I81
sg24
I0
sbssg25
S'\xce\x9djJ\xd4\xcc#\xf4\xdf\xcf\xc7n{&\x13B'
p210
ssS'_Users_graememaciver_Projects_GM07-KeyStore_venv_lib_python2_7_site-packages_social_auth_models'
p211
(dp212
g6
(dp213
g8
S'_Users_graememaciver_Projects_GM07-KeyStore_venv_lib_python2_7_site-packages_social_auth_models.html'
p214
sg10
S'/Users/graememaciver/Projects/GM07-KeyStore/venv/lib/python2.7/site-packages/social_auth/models'
p215
sg12
g13
(g14
g15
NtRp216
(dp217
g18
I1
sg19
I0
sg20
I5
sg21
I0
sg22
I0
sg23
I0
sg24
I0
sbssg25
S'\xe4\xf2\r!\xa7@\xb4\x84\x06\xfd\xc0\xf5#f\xba^'
p218
ssS'_Users_graememaciver_Projects_GM07-KeyStore_venv_lib_python2_7_site-packages_south_introspection_plugins___init__'
p219
(dp220
g6
(dp221
g8
S'_Users_graememaciver_Projects_GM07-KeyStore_venv_lib_python2_7_site-packages_south_introspection_plugins___init__.html'
p222
sg10
S'/Users/graememaciver/Projects/GM07-KeyStore/venv/lib/python2.7/site-packages/south/introspection_plugins/__init__'
p223
sg12
g13
(g14
g15
NtRp224
(dp225
g18
I1
sg19
I0
sg20
I6
sg21
I0
sg22
I0
sg23
I0
sg24
I0
sbssg25
S'j`\x9d\xcb\x86W\x0b^yc*\xba\xb3\x82\xd7\x1f'
p226
ssS'_Users_graememaciver_Projects_GM07-KeyStore_venv_lib_python2_7_site-packages_django_utils_text'
p227
(dp228
g6
(dp229
g8
S'_Users_graememaciver_Projects_GM07-KeyStore_venv_lib_python2_7_site-packages_django_utils_text.html'
p230
sg10
S'/Users/graememaciver/Projects/GM07-KeyStore/venv/lib/python2.7/site-packages/django/utils/text'
p231
sg12
g13
(g14
g15
NtRp232
(dp233
g18
I1
sg19
I0
sg20
I239
sg21
I0
sg22
I0
sg23
I174
sg24
I0
sbssg25
S"\x83|w`\xdb\x0ch\xc3\x0c'=8\xca+\xads"
p234
ssS'_Users_graememaciver_Projects_GM07-KeyStore_venv_lib_python2_7_site-packages_django_db_models_aggregates'
p235
(dp236
g6
(dp237
g8
S'_Users_graememaciver_Projects_GM07-KeyStore_venv_lib_python2_7_site-packages_django_db_models_aggregates.html'
p238
sg10
S'/Users/graememaciver/Projects/GM07-KeyStore/venv/lib/python2.7/site-packages/django/db/models/aggregates'
p239
sg12
g13
(g14
g15
NtRp240
(dp241
g18
I1
sg19
I0
sg20
I25
sg21
I0
sg22
I0
sg23
I6
sg24
I0
sbssg25
S'TO\x1e/\xbc\x9c\x17\xc0\xd4\xad\xd9\xae\xc4\\\xa4I'
p242
ssS'_Users_graememaciver_Projects_GM07-KeyStore_venv_lib_python2_7_site-packages_openid_association'
p243
(dp244
g6
(dp245
g8
S'_Users_graememaciver_Projects_GM07-KeyStore_venv_lib_python2_7_site-packages_openid_association.html'
p246
sg10
S'/Users/graememaciver/Projects/GM07-KeyStore/venv/lib/python2.7/site-packages/openid/association'
p247
sg12
g13
(g14
g15
NtRp248
(dp249
g18
I1
sg19
I0
sg20
I152
sg21
I0
sg22
I0
sg23
I102
sg24
I0
sbssg25
S'4\xa8~\x81\xcf\x015\xf7S\xc8\xdb\x18-$\xf7\x9b'
p250
ssS'_Users_graememaciver_Projects_GM07-KeyStore_venv_lib_python2_7_site-packages_django_core_exceptions'
p251
(dp252
g6
(dp253
g8
S'_Users_graememaciver_Projects_GM07-KeyStore_venv_lib_python2_7_site-packages_django_core_exceptions.html'
p254
sg10
S'/Users/graememaciver/Projects/GM07-KeyStore/venv/lib/python2.7/site-packages/django/core/exceptions'
p255
sg12
g13
(g14
g15
NtRp256
(dp257
g18
I1
sg19
I0
sg20
I49
sg21
I0
sg22
I0
sg23
I24
sg24
I0
sbssg25
S'VL\xfcg\xd3\x15\xd4$\x05\x8cM\x0f\x9b\x9eHV'
p258
ssS'_Users_graememaciver_Projects_GM07-KeyStore_venv_lib_python2_7_site-packages_south_utils_datetime_utils'
p259
(dp260
g6
(dp261
g8
S'_Users_graememaciver_Projects_GM07-KeyStore_venv_lib_python2_7_site-packages_south_utils_datetime_utils.html'
p262
sg10
S'/Users/graememaciver/Projects/GM07-KeyStore/venv/lib/python2.7/site-packages/south/utils/datetime_utils'
p263
sg12
g13
(g14
g15
NtRp264
(dp265
g18
I1
sg19
I0
sg20
I13
sg21
I0
sg22
I0
sg23
I5
sg24
I0
sbssg25
S'#\xd4%\xc1\x13b\xbe\xdc\x97\xcbi\xabX\x00\xa2\xa7'
p266
ssS'_Users_graememaciver_Projects_GM07-KeyStore_venv_lib_python2_7_site-packages_django_db_models_base'
p267
(dp268
g6
(dp269
g8
S'_Users_graememaciver_Projects_GM07-KeyStore_venv_lib_python2_7_site-packages_django_db_models_base.html'
p270
sg10
S'/Users/graememaciver/Projects/GM07-KeyStore/venv/lib/python2.7/site-packages/django/db/models/base'
p271
sg12
g13
(g14
g15
NtRp272
(dp273
g18
I1
sg19
I0
sg20
I544
sg21
I0
sg22
I0
sg23
I303
sg24
I0
sbssg25
S'sM\x95\xe8\xc9\xe8\x95N\xc9\xaa5\x12\x18b\xc1_'
p274
ssS'_Users_graememaciver_Projects_GM07-KeyStore_venv_lib_python2_7_site-packages_south_introspection_plugins_annoying_autoonetoone'
p275
(dp276
g6
(dp277
g8
S'_Users_graememaciver_Projects_GM07-KeyStore_venv_lib_python2_7_site-packages_south_introspection_plugins_annoying_autoonetoone.html'
p278
sg10
S'/Users/graememaciver/Projects/GM07-KeyStore/venv/lib/python2.7/site-packages/south/introspection_plugins/annoying_autoonetoone'
p279
sg12
g13
(g14
g15
NtRp280
(dp281
g18
I1
sg19
I0
sg20
I8
sg21
I0
sg22
I0
sg23
I5
sg24
I0
sbssg25
S'#)\xdb\xcd\xcemU}\x06\xd7\xc7\r\xe5\x11/\x02'
p282
ssS'_Users_graememaciver_Projects_GM07-KeyStore_venv_lib_python2_7_site-packages_django_contrib_sessions_models'
p283
(dp284
g6
(dp285
g8
S'_Users_graememaciver_Projects_GM07-KeyStore_venv_lib_python2_7_site-packages_django_contrib_sessions_models.html'
p286
sg10
S'/Users/graememaciver/Projects/GM07-KeyStore/venv/lib/python2.7/site-packages/django/contrib/sessions/models'
p287
sg12
g13
(g14
g15
NtRp288
(dp289
g18
I1
sg19
I0
sg20
I23
sg21
I0
sg22
I0
sg23
I7
sg24
I0
sbssg25
S'x\xddm4\x9e\xd9\xf8\x08\xfb\xd4[C\xe7ER\xc5'
p290
ssS'_Users_graememaciver_Projects_GM07-KeyStore_venv_lib_python2_7_site-packages_django_contrib_staticfiles_finders'
p291
(dp292
g6
(dp293
g8
S'_Users_graememaciver_Projects_GM07-KeyStore_venv_lib_python2_7_site-packages_django_contrib_staticfiles_finders.html'
p294
sg10
S'/Users/graememaciver/Projects/GM07-KeyStore/venv/lib/python2.7/site-packages/django/contrib/staticfiles/finders'
p295
sg12
g13
(g14
g15
NtRp296
(dp297
g18
I1
sg19
I0
sg20
I159
sg21
I0
sg22
I0
sg23
I121
sg24
I0
sbssg25
S'\xa3\xd7I\x8a\tm\x1dh\xb0c\xf4\xe3\xf7hmh'
p298
ssS'_Users_graememaciver_Projects_GM07-KeyStore_venv_lib_python2_7_site-packages_django_db_models_sql_aggregates'
p299
(dp300
g6
(dp301
g8
S'_Users_graememaciver_Projects_GM07-KeyStore_venv_lib_python2_7_site-packages_django_db_models_sql_aggregates.html'
p302
sg10
S'/Users/graememaciver/Projects/GM07-KeyStore/venv/lib/python2.7/site-packages/django/db/models/sql/aggregates'
p303
sg12
g13
(g14
g15
NtRp304
(dp305
g18
I1
sg19
I0
sg20
I57
sg21
I0
sg22
I0
sg23
I27
sg24
I0
sbssg25
S'"\xd6\xd4\x0f\xa9\xc7/\xabr\x93@\x0b\x90p\xca\xdf'
p306
ssS'_Users_graememaciver_Projects_GM07-KeyStore_manage'
p307
(dp308
g6
(dp309
g8
S'_Users_graememaciver_Projects_GM07-KeyStore_manage.html'
p310
sg10
S'/Users/graememaciver/Projects/GM07-KeyStore/manage'
p311
sg12
g13
(g14
g15
NtRp312
(dp313
g18
I1
sg19
I0
sg20
I6
sg21
I0
sg22
I0
sg23
I0
sg24
I0
sbssg25
S'\xd8K!\x02\xc4\xc8\xf3\xdbr\xa8\xba\xea\x0f\xf50\xdb'
p314
ssS'_Users_graememaciver_Projects_GM07-KeyStore_venv_lib_python2_7_site-packages_django_core_management_commands_test'
p315
(dp316
g6
(dp317
g8
S'_Users_graememaciver_Projects_GM07-KeyStore_venv_lib_python2_7_site-packages_django_core_management_commands_test.html'
p318
sg10
S'/Users/graememaciver/Projects/GM07-KeyStore/venv/lib/python2.7/site-packages/django/core/management/commands/test'
p319
sg12
g13
(g14
g15
NtRp320
(dp321
g18
I1
sg19
I0
sg20
I46
sg21
I0
sg22
I0
sg23
I5
sg24
I0
sbssg25
S't\xd0X\x16\x83\x1f\x12\xe3Y\xb6\xf7!9{\x12/'
p322
ssS'_Users_graememaciver_Projects_GM07-KeyStore_venv_lib_python2_7_site-packages_django_core_files_uploadedfile'
p323
(dp324
g6
(dp325
g8
S'_Users_graememaciver_Projects_GM07-KeyStore_venv_lib_python2_7_site-packages_django_core_files_uploadedfile.html'
p326
sg10
S'/Users/graememaciver/Projects/GM07-KeyStore/venv/lib/python2.7/site-packages/django/core/files/uploadedfile'
p327
sg12
g13
(g14
g15
NtRp328
(dp329
g18
I1
sg19
I0
sg20
I60
sg21
I0
sg22
I0
sg23
I32
sg24
I0
sbssg25
S'\xf9\x14\xfc\xaeej\x98\x970T\xbd\x8e\x1a$\xedq'
p330
ssS'_Users_graememaciver_Projects_GM07-KeyStore_venv_lib_python2_7_site-packages_django_forms_forms'
p331
(dp332
g6
(dp333
g8
S'_Users_graememaciver_Projects_GM07-KeyStore_venv_lib_python2_7_site-packages_django_forms_forms.html'
p334
sg10
S'/Users/graememaciver/Projects/GM07-KeyStore/venv/lib/python2.7/site-packages/django/forms/forms'
p335
sg12
g13
(g14
g15
NtRp336
(dp337
g18
I1
sg19
I0
sg20
I281
sg21
I0
sg22
I0
sg23
I195
sg24
I0
sbssg25
S'\xb8M\xbe\xfd\x1aX\x05\x0ev6&\xeb\x04\x83\x13&'
p338
ssS'_Users_graememaciver_Projects_GM07-KeyStore_venv_lib_python2_7_site-packages_django_utils_simplejson'
p339
(dp340
g6
(dp341
g8
S'_Users_graememaciver_Projects_GM07-KeyStore_venv_lib_python2_7_site-packages_django_utils_simplejson.html'
p342
sg10
S'/Users/graememaciver/Projects/GM07-KeyStore/venv/lib/python2.7/site-packages/django/utils/simplejson'
p343
sg12
g13
(g14
g15
NtRp344
(dp345
g18
I1
sg19
I0
sg20
I14
sg21
I0
sg22
I0
sg23
I4
sg24
I0
sbssg25
S'\xc5\xe7\x9e4\x0c\xa8\x83\x0e\x03\x15\xd64\x11~\\x'
p346
ssS'_Users_graememaciver_Projects_GM07-KeyStore_venv_lib_python2_7_site-packages_django_views_debug'
p347
(dp348
g6
(dp349
g8
S'_Users_graememaciver_Projects_GM07-KeyStore_venv_lib_python2_7_site-packages_django_views_debug.html'
p350
sg10
S'/Users/graememaciver/Projects/GM07-KeyStore/venv/lib/python2.7/site-packages/django/views/debug'
p351
sg12
g13
(g14
g15
NtRp352
(dp353
g18
I1
sg19
I0
sg20
I276
sg21
I0
sg22
I0
sg23
I230
sg24
I0
sbssg25
S"\x8f\\\x01V'1\x9e\\:Q\xf6\\\x8c!\xe7i"
p354
ssS'_Users_graememaciver_Projects_GM07-KeyStore_venv_lib_python2_7_site-packages_openid_message'
p355
(dp356
g6
(dp357
g8
S'_Users_graememaciver_Projects_GM07-KeyStore_venv_lib_python2_7_site-packages_openid_message.html'
p358
sg10
S'/Users/graememaciver/Projects/GM07-KeyStore/venv/lib/python2.7/site-packages/openid/message'
p359
sg12
g13
(g14
g15
NtRp360
(dp361
g18
I1
sg19
I0
sg20
I295
sg21
I0
sg22
I0
sg23
I222
sg24
I0
sbssg25
S'\xec\xe0\xf4\xde\x81D\xebsR\xb1U\xd2\x0c\x00\x94\x92'
p362
ssS'_Users_graememaciver_Projects_GM07-KeyStore_venv_lib_python2_7_site-packages_south_management_commands_test'
p363
(dp364
g6
(dp365
g8
S'_Users_graememaciver_Projects_GM07-KeyStore_venv_lib_python2_7_site-packages_south_management_commands_test.html'
p366
sg10
S'/Users/graememaciver/Projects/GM07-KeyStore/venv/lib/python2.7/site-packages/south/management/commands/test'
p367
sg12
g13
(g14
g15
NtRp368
(dp369
g18
I1
sg19
I0
sg20
I6
sg21
I0
sg22
I0
sg23
I0
sg24
I0
sbssg25
S"\x98'+\xf5\x95\xb5zx\xee\xd4\x1f\xc1\xe6\xc8\xb3\xfd"
p370
ssS'_Users_graememaciver_Projects_GM07-KeyStore_venv_lib_python2_7_site-packages_django_core_management_color'
p371
(dp372
g6
(dp373
g8
S'_Users_graememaciver_Projects_GM07-KeyStore_venv_lib_python2_7_site-packages_django_core_management_color.html'
p374
sg10
S'/Users/graememaciver/Projects/GM07-KeyStore/venv/lib/python2.7/site-packages/django/core/management/color'
p375
sg12
g13
(g14
g15
NtRp376
(dp377
g18
I1
sg19
I0
sg20
I28
sg21
I0
sg22
I0
sg23
I3
sg24
I0
sbssg25
S'\x1f\x18m\xdf\x9b&\x90\xbe\xf5\x15C\x10\x8e\x16\xcd\xc4'
p378
ssS'_Users_graememaciver_Projects_GM07-KeyStore_venv_lib_python2_7_site-packages_django_test_testcases'
p379
(dp380
g6
(dp381
g8
S'_Users_graememaciver_Projects_GM07-KeyStore_venv_lib_python2_7_site-packages_django_test_testcases.html'
p382
sg10
S'/Users/graememaciver/Projects/GM07-KeyStore/venv/lib/python2.7/site-packages/django/test/testcases'
p383
sg12
g13
(g14
g15
NtRp384
(dp385
g18
I1
sg19
I0
sg20
I609
sg21
I0
sg22
I0
sg23
I466
sg24
I0
sbssg25
S'\xd2\xff\xabX\xa8\x8d\xea\x99\x16k\xbe\xd9\x81\xed\x7fT'
p386
ssS'_Users_graememaciver_Projects_GM07-KeyStore_venv_lib_python2_7_site-packages_django_test_client'
p387
(dp388
g6
(dp389
g8
S'_Users_graememaciver_Projects_GM07-KeyStore_venv_lib_python2_7_site-packages_django_test_client.html'
p390
sg10
S'/Users/graememaciver/Projects/GM07-KeyStore/venv/lib/python2.7/site-packages/django/test/client'
p391
sg12
g13
(g14
g15
NtRp392
(dp393
g18
I1
sg19
I0
sg20
I276
sg21
I0
sg22
I0
sg23
I204
sg24
I0
sbssg25
S'\x94S\x07UT*\xdfu8\x983\x97\xbeP\xd41'
p394
ssS'_Users_graememaciver_Projects_GM07-KeyStore_venv_lib_python2_7_site-packages_django_utils_log'
p395
(dp396
g6
(dp397
g8
S'_Users_graememaciver_Projects_GM07-KeyStore_venv_lib_python2_7_site-packages_django_utils_log.html'
p398
sg10
S'/Users/graememaciver/Projects/GM07-KeyStore/venv/lib/python2.7/site-packages/django/utils/log'
p399
sg12
g13
(g14
g15
NtRp400
(dp401
g18
I1
sg19
I0
sg20
I57
sg21
I0
sg22
I0
sg23
I33
sg24
I0
sbssg25
S'KL1\xa7\xf6\xb5\x02\t\xb4{\xd8\xd8`\xdd\x9fa'
p402
ssS'_Users_graememaciver_Projects_GM07-KeyStore_interface_models'
p403
(dp404
g6
(dp405
g8
S'_Users_graememaciver_Projects_GM07-KeyStore_interface_models.html'
p406
sg10
S'/Users/graememaciver/Projects/GM07-KeyStore/interface/models'
p407
sg12
g13
(g14
g15
NtRp408
(dp409
g18
I1
sg19
I0
sg20
I1
sg21
I0
sg22
I0
sg23
I0
sg24
I0
sbssg25
S'\xd6L\xb8\xbdB\n\xefe\xa68\xebv\xbb\xe0\x1cm'
p410
ssS'_Users_graememaciver_Projects_GM07-KeyStore_venv_lib_python2_7_site-packages_django_db_backends_sqlite3_creation'
p411
(dp412
g6
(dp413
g8
S'_Users_graememaciver_Projects_GM07-KeyStore_venv_lib_python2_7_site-packages_django_db_backends_sqlite3_creation.html'
p414
sg10
S'/Users/graememaciver/Projects/GM07-KeyStore/venv/lib/python2.7/site-packages/django/db/backends/sqlite3/creation'
p415
sg12
g13
(g14
g15
NtRp416
(dp417
g18
I1
sg19
I0
sg20
I44
sg21
I0
sg22
I0
sg23
I17
sg24
I0
sbssg25
S'2\x88\xb6dx-\x8c"\xb8C\xd8=|x\xbf\x1f'
p418
ssS'_Users_graememaciver_Projects_GM07-KeyStore_venv_lib_python2_7_site-packages_django_utils_baseconv'
p419
(dp420
g6
(dp421
g8
S'_Users_graememaciver_Projects_GM07-KeyStore_venv_lib_python2_7_site-packages_django_utils_baseconv.html'
p422
sg10
S'/Users/graememaciver/Projects/GM07-KeyStore/venv/lib/python2.7/site-packages/django/utils/baseconv'
p423
sg12
g13
(g14
g15
NtRp424
(dp425
g18
I1
sg19
I0
sg20
I48
sg21
I0
sg22
I0
sg23
I25
sg24
I0
sbssg25
S'\xb2\x0b\x94|\xcd\x96\xf2\xa9r)h\x95\xb7\x97B\xe5'
p426
ssS'_Users_graememaciver_Projects_GM07-KeyStore_venv_lib_python2_7_site-packages_django_contrib_admin_filters'
p427
(dp428
g6
(dp429
g8
S'_Users_graememaciver_Projects_GM07-KeyStore_venv_lib_python2_7_site-packages_django_contrib_admin_filters.html'
p430
sg10
S'/Users/graememaciver/Projects/GM07-KeyStore/venv/lib/python2.7/site-packages/django/contrib/admin/filters'
p431
sg12
g13
(g14
g15
NtRp432
(dp433
g18
I1
sg19
I0
sg20
I184
sg21
I0
sg22
I0
sg23
I123
sg24
I0
sbssg25
S'\xd1\xb1-a\xf9\x97}\x95\x86g\x7f\x1e6\x88H\xb7'
p434
ssS'_Users_graememaciver_Projects_GM07-KeyStore_venv_lib_python2_7_site-packages_django_template_defaulttags'
p435
(dp436
g6
(dp437
g8
S'_Users_graememaciver_Projects_GM07-KeyStore_venv_lib_python2_7_site-packages_django_template_defaulttags.html'
p438
sg10
S'/Users/graememaciver/Projects/GM07-KeyStore/venv/lib/python2.7/site-packages/django/template/defaulttags'
p439
sg12
g13
(g14
g15
NtRp440
(dp441
g18
I1
sg19
I0
sg20
I608
sg21
I0
sg22
I0
sg23
I489
sg24
I0
sbssg25
S")\xfdL\xe0\xc9\x10@\x1fv\xe4}\xf5\x8c\xe7'\x8f"
p442
ssS'_Users_graememaciver_Projects_GM07-KeyStore_venv_lib_python2_7_site-packages_django_contrib_sites___init__'
p443
(dp444
g6
(dp445
g8
S'_Users_graememaciver_Projects_GM07-KeyStore_venv_lib_python2_7_site-packages_django_contrib_sites___init__.html'
p446
sg10
S'/Users/graememaciver/Projects/GM07-KeyStore/venv/lib/python2.7/site-packages/django/contrib/sites/__init__'
p447
sg12
g13
(g14
g15
NtRp448
(dp449
g18
I1
sg19
I0
sg20
I0
sg21
I0
sg22
I0
sg23
I0
sg24
I0
sbssg25
S'\xb0\xc8pN\xaf>\xa0\xbaz\x144\xe0A9\xb8?'
p450
ssS'_Users_graememaciver_Projects_GM07-KeyStore_venv_lib_python2_7_site-packages_south_migration___init__'
p451
(dp452
g6
(dp453
g8
S'_Users_graememaciver_Projects_GM07-KeyStore_venv_lib_python2_7_site-packages_south_migration___init__.html'
p454
sg10
S'/Users/graememaciver/Projects/GM07-KeyStore/venv/lib/python2.7/site-packages/south/migration/__init__'
p455
sg12
g13
(g14
g15
NtRp456
(dp457
g18
I1
sg19
I0
sg20
I157
sg21
I0
sg22
I0
sg23
I66
sg24
I0
sbssg25
S'1@\x9dJ\xa9\xcd\xb6=\x01\xd1pP\x83\xde{\xec'
p458
ssS'_Users_graememaciver_Projects_GM07-KeyStore_venv_lib_python2_7_site-packages_django_http_response'
p459
(dp460
g6
(dp461
g8
S'_Users_graememaciver_Projects_GM07-KeyStore_venv_lib_python2_7_site-packages_django_http_response.html'
p462
sg10
S'/Users/graememaciver/Projects/GM07-KeyStore/venv/lib/python2.7/site-packages/django/http/response'
p463
sg12
g13
(g14
g15
NtRp464
(dp465
g18
I1
sg19
I0
sg20
I236
sg21
I0
sg22
I0
sg23
I143
sg24
I0
sbssg25
S'{!\xbf\xc4\x1c\xb2cw\x18\x00q\x9b\xe3Sh;'
p466
ssS'_Users_graememaciver_Projects_GM07-KeyStore_venv_lib_python2_7_site-packages_south_logger'
p467
(dp468
g6
(dp469
g8
S'_Users_graememaciver_Projects_GM07-KeyStore_venv_lib_python2_7_site-packages_south_logger.html'
p470
sg10
S'/Users/graememaciver/Projects/GM07-KeyStore/venv/lib/python2.7/site-packages/south/logger'
p471
sg12
g13
(g14
g15
NtRp472
(dp473
g18
I1
sg19
I0
sg20
I26
sg21
I0
sg22
I0
sg23
I10
sg24
I0
sbssg25
S"\x05\x92\xfa\xaf\xd6\xeb\x1a\xb2'yT\xc4\xf8\x0f.7"
p474
ssS'_Users_graememaciver_Projects_GM07-KeyStore_venv_lib_python2_7_site-packages_django_forms_models'
p475
(dp476
g6
(dp477
g8
S'_Users_graememaciver_Projects_GM07-KeyStore_venv_lib_python2_7_site-packages_django_forms_models.html'
p478
sg10
S'/Users/graememaciver/Projects/GM07-KeyStore/venv/lib/python2.7/site-packages/django/forms/models'
p479
sg12
g13
(g14
g15
NtRp480
(dp481
g18
I1
sg19
I0
sg20
I588
sg21
I0
sg22
I0
sg23
I435
sg24
I0
sbssg25
S'An\x9fh\xc2\xb8\xb8#\xbb\xd0B\xd6\xb9\x88E\xf6'
p482
ssS'_Users_graememaciver_Projects_GM07-KeyStore_venv_lib_python2_7_site-packages_south_modelsinspector'
p483
(dp484
g6
(dp485
g8
S'_Users_graememaciver_Projects_GM07-KeyStore_venv_lib_python2_7_site-packages_south_modelsinspector.html'
p486
sg10
S'/Users/graememaciver/Projects/GM07-KeyStore/venv/lib/python2.7/site-packages/south/modelsinspector'
p487
sg12
g13
(g14
g15
NtRp488
(dp489
g18
I1
sg19
I0
sg20
I194
sg21
I0
sg22
I0
sg23
I156
sg24
I0
sbssg25
S'!\t\xb2\xe0\x811U6\xd7i\xca\xecjx\xbf7'
p490
ssS'_Users_graememaciver_Projects_GM07-KeyStore_venv_lib_python2_7_site-packages_django_utils_numberformat'
p491
(dp492
g6
(dp493
g8
S'_Users_graememaciver_Projects_GM07-KeyStore_venv_lib_python2_7_site-packages_django_utils_numberformat.html'
p494
sg10
S'/Users/graememaciver/Projects/GM07-KeyStore/venv/lib/python2.7/site-packages/django/utils/numberformat'
p495
sg12
g13
(g14
g15
NtRp496
(dp497
g18
I1
sg19
I0
sg20
I31
sg21
I0
sg22
I0
sg23
I27
sg24
I0
sbssg25
S'\xf0(3>w\xdbe\x8d\x05\x0e\x03\x13{\x0c\x8d/'
p498
ssS'_Users_graememaciver_Projects_GM07-KeyStore_venv_lib_python2_7_site-packages_south_introspection_plugins_geodjango'
p499
(dp500
g6
(dp501
g8
S'_Users_graememaciver_Projects_GM07-KeyStore_venv_lib_python2_7_site-packages_south_introspection_plugins_geodjango.html'
p502
sg10
S'/Users/graememaciver/Projects/GM07-KeyStore/venv/lib/python2.7/site-packages/south/introspection_plugins/geodjango'
p503
sg12
g13
(g14
g15
NtRp504
(dp505
g18
I1
sg19
I0
sg20
I10
sg21
I0
sg22
I0
sg23
I5
sg24
I0
sbssg25
S'\xf4\xc9*\xaa.axv\xa7M\xc2_ST\x8b\xaa'
p506
ssS'_Users_graememaciver_Projects_GM07-KeyStore_venv_lib_python2_7_site-packages_django_core_files_storage'
p507
(dp508
g6
(dp509
g8
S'_Users_graememaciver_Projects_GM07-KeyStore_venv_lib_python2_7_site-packages_django_core_files_storage.html'
p510
sg10
S'/Users/graememaciver/Projects/GM07-KeyStore/venv/lib/python2.7/site-packages/django/core/files/storage'
p511
sg12
g13
(g14
g15
NtRp512
(dp513
g18
I1
sg19
I0
sg20
I160
sg21
I0
sg22
I0
sg23
I111
sg24
I0
sbssg25
S'\xaf\xf3\x1f\xb1]\t{\x1b\x1eLf\xf4,\xfe\x06M'
p514
ssS'_Users_graememaciver_Projects_GM07-KeyStore_venv_lib_python2_7_site-packages_django_db_models_constants'
p515
(dp516
g6
(dp517
g8
S'_Users_graememaciver_Projects_GM07-KeyStore_venv_lib_python2_7_site-packages_django_db_models_constants.html'
p518
sg10
S'/Users/graememaciver/Projects/GM07-KeyStore/venv/lib/python2.7/site-packages/django/db/models/constants'
p519
sg12
g13
(g14
g15
NtRp520
(dp521
g18
I1
sg19
I0
sg20
I1
sg21
I0
sg22
I0
sg23
I0
sg24
I0
sbssg25
S'\xef\x06{\x16\xaf\xdf\xe1\xdd\xad\xcc\xcb\xa8A\x84\xe7\xab'
p522
ssS'_Users_graememaciver_Projects_GM07-KeyStore_venv_lib_python2_7_site-packages_django_db_models_sql_constants'
p523
(dp524
g6
(dp525
g8
S'_Users_graememaciver_Projects_GM07-KeyStore_venv_lib_python2_7_site-packages_django_db_models_sql_constants.html'
p526
sg10
S'/Users/graememaciver/Projects/GM07-KeyStore/venv/lib/python2.7/site-packages/django/db/models/sql/constants'
p527
sg12
g13
(g14
g15
NtRp528
(dp529
g18
I1
sg19
I0
sg20
I9
sg21
I0
sg22
I0
sg23
I0
sg24
I0
sbssg25
S']V9\xa6\xadN\xb7\x17\x9du(\xa5-\x93\xba\xc0'
p530
ssS'_Users_graememaciver_Projects_GM07-KeyStore_venv_lib_python2_7_site-packages_django_core_management_base'
p531
(dp532
g6
(dp533
g8
S'_Users_graememaciver_Projects_GM07-KeyStore_venv_lib_python2_7_site-packages_django_core_management_base.html'
p534
sg10
S'/Users/graememaciver/Projects/GM07-KeyStore/venv/lib/python2.7/site-packages/django/core/management/base'
p535
sg12
g13
(g14
g15
NtRp536
(dp537
g18
I1
sg19
I0
sg20
I139
sg21
I0
sg22
I0
sg23
I55
sg24
I0
sbssg25
S'^j\xbb\xc0\x7f\x01\x04\x01\x8fV#\x1cU/\xce,'
p538
ssS'_Users_graememaciver_Projects_GM07-KeyStore_venv_lib_python2_7_site-packages_django_utils_http'
p539
(dp540
g6
(dp541
g8
S'_Users_graememaciver_Projects_GM07-KeyStore_venv_lib_python2_7_site-packages_django_utils_http.html'
p542
sg10
S'/Users/graememaciver/Projects/GM07-KeyStore/venv/lib/python2.7/site-packages/django/utils/http'
p543
sg12
g13
(g14
g15
NtRp544
(dp545
g18
I1
sg19
I0
sg20
I122
sg21
I0
sg22
I0
sg23
I76
sg24
I0
sbssg25
S'%Wn\xd7\xf9\xc1\xa6Vg\x03\xb1~\xb2\xee>\xc3'
p546
ssS'_Users_graememaciver_Projects_GM07-KeyStore_venv_lib_python2_7_site-packages_django___init__'
p547
(dp548
g6
(dp549
g8
S'_Users_graememaciver_Projects_GM07-KeyStore_venv_lib_python2_7_site-packages_django___init__.html'
p550
sg10
S'/Users/graememaciver/Projects/GM07-KeyStore/venv/lib/python2.7/site-packages/django/__init__'
p551
sg12
g13
(g14
g15
NtRp552
(dp553
g18
I1
sg19
I0
sg20
I4
sg21
I0
sg22
I0
sg23
I0
sg24
I0
sbssg25
S'\xb5>\t0\xfb\x80\x1d\xbc\x14i\xac\xb1>\xa5\xfa\xba'
p554
ssS'_Users_graememaciver_Projects_GM07-KeyStore_venv_lib_python2_7_site-packages_django_template_loaders_cached'
p555
(dp556
g6
(dp557
g8
S'_Users_graememaciver_Projects_GM07-KeyStore_venv_lib_python2_7_site-packages_django_template_loaders_cached.html'
p558
sg10
S'/Users/graememaciver/Projects/GM07-KeyStore/venv/lib/python2.7/site-packages/django/template/loaders/cached'
p559
sg12
g13
(g14
g15
NtRp560
(dp561
g18
I1
sg19
I0
sg20
I40
sg21
I0
sg22
I0
sg23
I29
sg24
I0
sbssg25
S"\xb6m'[\xd1h\x8ePw\\*\xeaC\x08\x16\xd5"
p562
ssS'_Users_graememaciver_Projects_GM07-KeyStore_venv_lib_python2_7_site-packages_django_forms_formsets'
p563
(dp564
g6
(dp565
g8
S'_Users_graememaciver_Projects_GM07-KeyStore_venv_lib_python2_7_site-packages_django_forms_formsets.html'
p566
sg10
S'/Users/graememaciver/Projects/GM07-KeyStore/venv/lib/python2.7/site-packages/django/forms/formsets'
p567
sg12
g13
(g14
g15
NtRp568
(dp569
g18
I1
sg19
I0
sg20
I212
sg21
I0
sg22
I0
sg23
I155
sg24
I0
sbssg25
S'\xc8h\xd5+"\\_>]\x1c}\x99)\xc8%4'
p570
ssS'_Users_graememaciver_Projects_GM07-KeyStore_venv_lib_python2_7_site-packages_django_http_cookie'
p571
(dp572
g6
(dp573
g8
S'_Users_graememaciver_Projects_GM07-KeyStore_venv_lib_python2_7_site-packages_django_http_cookie.html'
p574
sg10
S'/Users/graememaciver/Projects/GM07-KeyStore/venv/lib/python2.7/site-packages/django/http/cookie'
p575
sg12
g13
(g14
g15
NtRp576
(dp577
g18
I1
sg19
I0
sg20
I53
sg21
I0
sg22
I0
sg23
I35
sg24
I0
sbssg25
S"\x88\x98\xbeIS\x96'\x00U\xab\x91\xa6\xad\x18X\xe8"
p578
ssS'_Users_graememaciver_Projects_GM07-KeyStore_venv_lib_python2_7_site-packages_django_contrib_staticfiles___init__'
p579
(dp580
g6
(dp581
g8
S'_Users_graememaciver_Projects_GM07-KeyStore_venv_lib_python2_7_site-packages_django_contrib_staticfiles___init__.html'
p582
sg10
S'/Users/graememaciver/Projects/GM07-KeyStore/venv/lib/python2.7/site-packages/django/contrib/staticfiles/__init__'
p583
sg12
g13
(g14
g15
NtRp584
(dp585
g18
I1
sg19
I0
sg20
I0
sg21
I0
sg22
I0
sg23
I0
sg24
I0
sbssg25
S'\xb0\xc8pN\xaf>\xa0\xbaz\x144\xe0A9\xb8?'
p586
ssS'_Users_graememaciver_Projects_GM07-KeyStore_venv_lib_python2_7_site-packages_social_auth_db___init__'
p587
(dp588
g6
(dp589
g8
S'_Users_graememaciver_Projects_GM07-KeyStore_venv_lib_python2_7_site-packages_social_auth_db___init__.html'
p590
sg10
S'/Users/graememaciver/Projects/GM07-KeyStore/venv/lib/python2.7/site-packages/social_auth/db/__init__'
p591
sg12
g13
(g14
g15
NtRp592
(dp593
g18
I1
sg19
I0
sg20
I0
sg21
I0
sg22
I0
sg23
I0
sg24
I0
sbssg25
S'\xb0\xc8pN\xaf>\xa0\xbaz\x144\xe0A9\xb8?'
p594
ssS'_Users_graememaciver_Projects_GM07-KeyStore_venv_lib_python2_7_site-packages_django_db_models_query_utils'
p595
(dp596
g6
(dp597
g8
S'_Users_graememaciver_Projects_GM07-KeyStore_venv_lib_python2_7_site-packages_django_db_models_query_utils.html'
p598
sg10
S'/Users/graememaciver/Projects/GM07-KeyStore/venv/lib/python2.7/site-packages/django/db/models/query_utils'
p599
sg12
g13
(g14
g15
NtRp600
(dp601
g18
I1
sg19
I0
sg20
I92
sg21
I0
sg22
I0
sg23
I65
sg24
I0
sbssg25
S'o\xa7\xc3\x81\x989\n\xc7m\xee~\xcas\x08Ak'
p602
ssS'_Users_graememaciver_Projects_GM07-KeyStore_venv_lib_python2_7_site-packages_django_dispatch___init__'
p603
(dp604
g6
(dp605
g8
S'_Users_graememaciver_Projects_GM07-KeyStore_venv_lib_python2_7_site-packages_django_dispatch___init__.html'
p606
sg10
S'/Users/graememaciver/Projects/GM07-KeyStore/venv/lib/python2.7/site-packages/django/dispatch/__init__'
p607
sg12
g13
(g14
g15
NtRp608
(dp609
g18
I1
sg19
I0
sg20
I1
sg21
I0
sg22
I0
sg23
I0
sg24
I0
sbssg25
S'\xe9$\xa4\xf3k\xc7$G\xbe^\x9e5~A\x94\xd1'
p610
ssS'_Users_graememaciver_Projects_GM07-KeyStore_venv_lib_python2_7_site-packages_django_db_models___init__'
p611
(dp612
g6
(dp613
g8
S'_Users_graememaciver_Projects_GM07-KeyStore_venv_lib_python2_7_site-packages_django_db_models___init__.html'
p614
sg10
S'/Users/graememaciver/Projects/GM07-KeyStore/venv/lib/python2.7/site-packages/django/db/models/__init__'
p615
sg12
g13
(g14
g15
NtRp616
(dp617
g18
I1
sg19
I0
sg20
I22
sg21
I0
sg22
I0
sg23
I5
sg24
I0
sbssg25
S'\xe0\x1a&\xbc\x03aQ \x8f\xa5Y\xf1\xe6\xcb\xc4\xcf'
p618
ssS'_Users_graememaciver_Projects_GM07-KeyStore_venv_lib_python2_7_site-packages_south_management_commands___init__'
p619
(dp620
g6
(dp621
g8
S'_Users_graememaciver_Projects_GM07-KeyStore_venv_lib_python2_7_site-packages_south_management_commands___init__.html'
p622
sg10
S'/Users/graememaciver/Projects/GM07-KeyStore/venv/lib/python2.7/site-packages/south/management/commands/__init__'
p623
sg12
g13
(g14
g15
NtRp624
(dp625
g18
I1
sg19
I0
sg20
I18
sg21
I0
sg22
I0
sg23
I1
sg24
I0
sbssg25
S'b&]\x8bu\x13\xcde\x13\xe0\xdc1\xc1\xe6B|'
p626
ssS'_Users_graememaciver_Projects_GM07-KeyStore_venv_lib_python2_7_site-packages_django_forms_fields'
p627
(dp628
g6
(dp629
g8
S'_Users_graememaciver_Projects_GM07-KeyStore_venv_lib_python2_7_site-packages_django_forms_fields.html'
p630
sg10
S'/Users/graememaciver/Projects/GM07-KeyStore/venv/lib/python2.7/site-packages/django/forms/fields'
p631
sg12
g13
(g14
g15
NtRp632
(dp633
g18
I1
sg19
I0
sg20
I588
sg21
I0
sg22
I0
sg23
I381
sg24
I0
sbssg25
S'\xcfaV\x83L\x9a\x16i\xbf\xd27d\xca\x1bf\xfd'
p634
ssS'_Users_graememaciver_Projects_GM07-KeyStore_venv_lib_python2_7_site-packages_django_template_context'
p635
(dp636
g6
(dp637
g8
S'_Users_graememaciver_Projects_GM07-KeyStore_venv_lib_python2_7_site-packages_django_template_context.html'
p638
sg10
S'/Users/graememaciver/Projects/GM07-KeyStore/venv/lib/python2.7/site-packages/django/template/context'
p639
sg12
g13
(g14
g15
NtRp640
(dp641
g18
I1
sg19
I0
sg20
I114
sg21
I0
sg22
I0
sg23
I81
sg24
I0
sbssg25
S'b\xd5\x12\xaf>\xf7\x0f\x87\xf2g\xbc\x9f\xd7\x962\xb1'
p642
ssS'_Users_graememaciver_Projects_GM07-KeyStore_venv_lib_python2_7_site-packages_django_utils_encoding'
p643
(dp644
g6
(dp645
g8
S'_Users_graememaciver_Projects_GM07-KeyStore_venv_lib_python2_7_site-packages_django_utils_encoding.html'
p646
sg10
S'/Users/graememaciver/Projects/GM07-KeyStore/venv/lib/python2.7/site-packages/django/utils/encoding'
p647
sg12
g13
(g14
g15
NtRp648
(dp649
g18
I1
sg19
I0
sg20
I104
sg21
I0
sg22
I0
sg23
I38
sg24
I0
sbssg25
S'\xd9\xbef\xe3Jn\x17\xdf\x15\xe5u\x16| \xe0\x10'
p650
ssS'_Users_graememaciver_Projects_GM07-KeyStore_venv_lib_python2_7_site-packages_south_signals'
p651
(dp652
g6
(dp653
g8
S'_Users_graememaciver_Projects_GM07-KeyStore_venv_lib_python2_7_site-packages_south_signals.html'
p654
sg10
S'/Users/graememaciver/Projects/GM07-KeyStore/venv/lib/python2.7/site-packages/south/signals'
p655
sg12
g13
(g14
g15
NtRp656
(dp657
g18
I1
sg19
I0
sg20
I5
sg21
I0
sg22
I0
sg23
I0
sg24
I0
sbssg25
S']\x7fp!\xd57kP\xa7oZjp4\x8eu'
p658
ssS'_Users_graememaciver_Projects_GM07-KeyStore_venv_lib_python2_7_site-packages_django_core_serializers___init__'
p659
(dp660
g6
(dp661
g8
S'_Users_graememaciver_Projects_GM07-KeyStore_venv_lib_python2_7_site-packages_django_core_serializers___init__.html'
p662
sg10
S'/Users/graememaciver/Projects/GM07-KeyStore/venv/lib/python2.7/site-packages/django/core/serializers/__init__'
p663
sg12
g13
(g14
g15
NtRp664
(dp665
g18
I1
sg19
I0
sg20
I59
sg21
I0
sg22
I0
sg23
I28
sg24
I0
sbssg25
S'\txe\xcf\xac("?\x03\xe1\x02\xe6/*6\xba'
p666
ssS'_Users_graememaciver_Projects_GM07-KeyStore_venv_lib_python2_7_site-packages_django_contrib_admin_actions'
p667
(dp668
g6
(dp669
g8
S'_Users_graememaciver_Projects_GM07-KeyStore_venv_lib_python2_7_site-packages_django_contrib_admin_actions.html'
p670
sg10
S'/Users/graememaciver/Projects/GM07-KeyStore/venv/lib/python2.7/site-packages/django/contrib/admin/actions'
p671
sg12
g13
(g14
g15
NtRp672
(dp673
g18
I1
sg19
I0
sg20
I34
sg21
I0
sg22
I0
sg23
I25
sg24
I0
sbssg25
S'l\x91\x91\xef\xc5=\x12DR\x98\x8d\x11\x80z!\x0e'
p674
ssS'settings___init__'
p675
(dp676
g6
(dp677
g8
S'settings___init__.html'
p678
sg10
S'settings/__init__'
p679
sg12
g13
(g14
g15
NtRp680
(dp681
g18
I1
sg19
I0
sg20
I0
sg21
I0
sg22
I0
sg23
I0
sg24
I0
sbssg25
S'\xb0\xc8pN\xaf>\xa0\xbaz\x144\xe0A9\xb8?'
p682
ssS'_Users_graememaciver_Projects_GM07-KeyStore_venv_lib_python2_7_site-packages_south_utils_py3'
p683
(dp684
g6
(dp685
g8
S'_Users_graememaciver_Projects_GM07-KeyStore_venv_lib_python2_7_site-packages_south_utils_py3.html'
p686
sg10
S'/Users/graememaciver/Projects/GM07-KeyStore/venv/lib/python2.7/site-packages/south/utils/py3'
p687
sg12
g13
(g14
g15
NtRp688
(dp689
g18
I1
sg19
I0
sg20
I11
sg21
I0
sg22
I0
sg23
I3
sg24
I0
sbssg25
S'4\xef\x05\x08\x00\xbapYn\xecIN\x96:U\xc5'
p690
ssS'_Users_graememaciver_Projects_GM07-KeyStore_venv_lib_python2_7_site-packages_django_core_paginator'
p691
(dp692
g6
(dp693
g8
S'_Users_graememaciver_Projects_GM07-KeyStore_venv_lib_python2_7_site-packages_django_core_paginator.html'
p694
sg10
S'/Users/graememaciver/Projects/GM07-KeyStore/venv/lib/python2.7/site-packages/django/core/paginator'
p695
sg12
g13
(g14
g15
NtRp696
(dp697
g18
I1
sg19
I0
sg20
I106
sg21
I0
sg22
I0
sg23
I71
sg24
I0
sbssg25
S'\xa2\x9f\x8e\xe5\x07, \x0e\xf9\x106\x95\xfb\xdcs\xe8'
p698
ssS'_Users_graememaciver_Projects_GM07-KeyStore_venv_lib_python2_7_site-packages_django_contrib_staticfiles_templatetags_staticfiles'
p699
(dp700
g6
(dp701
g8
S'_Users_graememaciver_Projects_GM07-KeyStore_venv_lib_python2_7_site-packages_django_contrib_staticfiles_templatetags_staticfiles.html'
p702
sg10
S'/Users/graememaciver/Projects/GM07-KeyStore/venv/lib/python2.7/site-packages/django/contrib/staticfiles/templatetags/staticfiles'
p703
sg12
g13
(g14
g15
NtRp704
(dp705
g18
I1
sg19
I0
sg20
I12
sg21
I0
sg22
I0
sg23
I4
sg24
I0
sbssg25
S'\xb3\x88\x8a.\xc4/\x07\xb14\x17\xe9\xbe\xf5\xfc\xde\xe9'
p706
ssS'_Users_graememaciver_Projects_GM07-KeyStore_venv_lib_python2_7_site-packages_django_contrib___init__'
p707
(dp708
g6
(dp709
g8
S'_Users_graememaciver_Projects_GM07-KeyStore_venv_lib_python2_7_site-packages_django_contrib___init__.html'
p710
sg10
S'/Users/graememaciver/Projects/GM07-KeyStore/venv/lib/python2.7/site-packages/django/contrib/__init__'
p711
sg12
g13
(g14
g15
NtRp712
(dp713
g18
I1
sg19
I0
sg20
I0
sg21
I0
sg22
I0
sg23
I0
sg24
I0
sbssg25
S'\xb0\xc8pN\xaf>\xa0\xbaz\x144\xe0A9\xb8?'
p714
ssS'_Users_graememaciver_Projects_GM07-KeyStore_venv_lib_python2_7_site-packages_django_db_backends_util'
p715
(dp716
g6
(dp717
g8
S'_Users_graememaciver_Projects_GM07-KeyStore_venv_lib_python2_7_site-packages_django_db_backends_util.html'
p718
sg10
S'/Users/graememaciver/Projects/GM07-KeyStore/venv/lib/python2.7/site-packages/django/db/backends/util'
p719
sg12
g13
(g14
g15
NtRp720
(dp721
g18
I1
sg19
I0
sg20
I94
sg21
I0
sg22
I0
sg23
I60
sg24
I0
sbssg25
S'\xd5\xdd\xd2\x1e3\x96\x0e\xf7\x03\xe1r\xe1\x7f\xb0Y\x92'
p722
ssS'_Users_graememaciver_Projects_GM07-KeyStore_venv_lib_python2_7_site-packages_django_conf_locale_en_formats'
p723
(dp724
g6
(dp725
g8
S'_Users_graememaciver_Projects_GM07-KeyStore_venv_lib_python2_7_site-packages_django_conf_locale_en_formats.html'
p726
sg10
S'/Users/graememaciver/Projects/GM07-KeyStore/venv/lib/python2.7/site-packages/django/conf/locale/en/formats'
p727
sg12
g13
(g14
g15
NtRp728
(dp729
g18
I1
sg19
I0
sg20
I13
sg21
I0
sg22
I0
sg23
I0
sg24
I0
sbssg25
S'N\x11\xf3\xa6\x0e\xc6\x1f\xdeR\xeaSF\xa5vb\x90'
p730
ssS'_Users_graememaciver_Projects_GM07-KeyStore_venv_lib_python2_7_site-packages_django_core_management_sql'
p731
(dp732
g6
(dp733
g8
S'_Users_graememaciver_Projects_GM07-KeyStore_venv_lib_python2_7_site-packages_django_core_management_sql.html'
p734
sg10
S'/Users/graememaciver/Projects/GM07-KeyStore/venv/lib/python2.7/site-packages/django/core/management/sql'
p735
sg12
g13
(g14
g15
NtRp736
(dp737
g18
I1
sg19
I0
sg20
I115
sg21
I0
sg22
I0
sg23
I82
sg24
I0
sbssg25
S'\x9e\xc8\x99\t\xdb~\xce\x85\x1e\x97\xb5\xcf\x86\xad\x8d7'
p738
ssS'_Users_graememaciver_Projects_GM07-KeyStore_venv_lib_python2_7_site-packages_django_db_models_expressions'
p739
(dp740
g6
(dp741
g8
S'_Users_graememaciver_Projects_GM07-KeyStore_venv_lib_python2_7_site-packages_django_db_models_expressions.html'
p742
sg10
S'/Users/graememaciver/Projects/GM07-KeyStore/venv/lib/python2.7/site-packages/django/db/models/expressions'
p743
sg12
g13
(g14
g15
NtRp744
(dp745
g18
I1
sg19
I0
sg20
I88
sg21
I0
sg22
I0
sg23
I47
sg24
I0
sbssg25
S'o\x0f\x167\x0fR:\xe4WS\xb0\x80\xa4Yfl'
p746
ssS'_Users_graememaciver_Projects_GM07-KeyStore_venv_lib_python2_7_site-packages_django_utils_decorators'
p747
(dp748
g6
(dp749
g8
S'_Users_graememaciver_Projects_GM07-KeyStore_venv_lib_python2_7_site-packages_django_utils_decorators.html'
p750
sg10
S'/Users/graememaciver/Projects/GM07-KeyStore/venv/lib/python2.7/site-packages/django/utils/decorators'
p751
sg12
g13
(g14
g15
NtRp752
(dp753
g18
I1
sg19
I0
sg20
I59
sg21
I0
sg22
I0
sg23
I33
sg24
I0
sbssg25
S'0\xeb\xd1\xab\xddj\xadk\t;\xa8\x95L\xdd \xc7'
p754
ssS'_Users_graememaciver_Projects_GM07-KeyStore_venv_lib_python2_7_site-packages_django_db_models_related'
p755
(dp756
g6
(dp757
g8
S'_Users_graememaciver_Projects_GM07-KeyStore_venv_lib_python2_7_site-packages_django_db_models_related.html'
p758
sg10
S'/Users/graememaciver/Projects/GM07-KeyStore/venv/lib/python2.7/site-packages/django/db/models/related'
p759
sg12
g13
(g14
g15
NtRp760
(dp761
g18
I1
sg19
I0
sg20
I41
sg21
I0
sg22
I0
sg23
I17
sg24
I0
sbssg25
S'E\\w\xe5I\xe76K\x0f\xf1\x9dw\xba\xb1|\x1e'
p762
ssS'_Users_graememaciver_Projects_GM07-KeyStore_venv_lib_python2_7_site-packages_django_core_files_temp'
p763
(dp764
g6
(dp765
g8
S'_Users_graememaciver_Projects_GM07-KeyStore_venv_lib_python2_7_site-packages_django_core_files_temp.html'
p766
sg10
S'/Users/graememaciver/Projects/GM07-KeyStore/venv/lib/python2.7/site-packages/django/core/files/temp'
p767
sg12
g13
(g14
g15
NtRp768
(dp769
g18
I1
sg19
I0
sg20
I28
sg21
I0
sg22
I0
sg23
I21
sg24
I0
sbssg25
S'\x14%Z\x18\x8e\x18K\xa3Y\x1f\xa7\x988\xdc)X'
p770
ssS'_Users_graememaciver_Projects_GM07-KeyStore_venv_lib_python2_7_site-packages_south_v2'
p771
(dp772
g6
(dp773
g8
S'_Users_graememaciver_Projects_GM07-KeyStore_venv_lib_python2_7_site-packages_south_v2.html'
p774
sg10
S'/Users/graememaciver/Projects/GM07-KeyStore/venv/lib/python2.7/site-packages/south/v2'
p775
sg12
g13
(g14
g15
NtRp776
(dp777
g18
I1
sg19
I0
sg20
I8
sg21
I0
sg22
I0
sg23
I0
sg24
I0
sbssg25
S'e7\x9e]\x1ck@\x8dD\xd6\xa2X64\xc2]'
p778
ssS'_Users_graememaciver_Projects_GM07-KeyStore_venv_lib_python2_7_site-packages_django_contrib_messages_api'
p779
(dp780
g6
(dp781
g8
S'_Users_graememaciver_Projects_GM07-KeyStore_venv_lib_python2_7_site-packages_django_contrib_messages_api.html'
p782
sg10
S'/Users/graememaciver/Projects/GM07-KeyStore/venv/lib/python2.7/site-packages/django/contrib/messages/api'
p783
sg12
g13
(g14
g15
NtRp784
(dp785
g18
I1
sg19
I0
sg20
I34
sg21
I0
sg22
I0
sg23
I20
sg24
I0
sbssg25
S'i\xb5\x8fk2\x89\xf2JF0\xfa\xd1z\x05\xaf\xe5'
p786
ssS'_Users_graememaciver_Projects_GM07-KeyStore_venv_lib_python2_7_site-packages_django_core_mail___init__'
p787
(dp788
g6
(dp789
g8
S'_Users_graememaciver_Projects_GM07-KeyStore_venv_lib_python2_7_site-packages_django_core_mail___init__.html'
p790
sg10
S'/Users/graememaciver/Projects/GM07-KeyStore/venv/lib/python2.7/site-packages/django/core/mail/__init__'
p791
sg12
g13
(g14
g15
NtRp792
(dp793
g18
I1
sg19
I0
sg20
I39
sg21
I0
sg22
I0
sg23
I28
sg24
I0
sbssg25
S'\x05\xc9\xdd\x1e\x0b\xde;\xdd\x8e\xfb\x99-\xc4\x84\xbd\xd8'
p794
ssS'_Users_graememaciver_Projects_GM07-KeyStore_venv_lib_python2_7_site-packages_django_db_transaction'
p795
(dp796
g6
(dp797
g8
S'_Users_graememaciver_Projects_GM07-KeyStore_venv_lib_python2_7_site-packages_django_db_transaction.html'
p798
sg10
S'/Users/graememaciver/Projects/GM07-KeyStore/venv/lib/python2.7/site-packages/django/db/transaction'
p799
sg12
g13
(g14
g15
NtRp800
(dp801
g18
I1
sg19
I0
sg20
I135
sg21
I0
sg22
I0
sg23
I65
sg24
I0
sbssg25
S'\x89\x05\x06\xe5Z\xf6M\xef\x8dT\xf4\xa2v]\xf4\xce'
p802
ssS'_Users_graememaciver_Projects_GM07-KeyStore_venv_lib_python2_7_site-packages_django_contrib_auth_management___init__'
p803
(dp804
g6
(dp805
g8
S'_Users_graememaciver_Projects_GM07-KeyStore_venv_lib_python2_7_site-packages_django_contrib_auth_management___init__.html'
p806
sg10
S'/Users/graememaciver/Projects/GM07-KeyStore/venv/lib/python2.7/site-packages/django/contrib/auth/management/__init__'
p807
sg12
g13
(g14
g15
NtRp808
(dp809
g18
I1
sg19
I0
sg20
I101
sg21
I0
sg22
I0
sg23
I51
sg24
I0
sbssg25
S'ko\x86\x1b\xcf\x9e~\x05d\xde\xe2\x94\xc0\x9b\xb4\xae'
p810
ssS'_Users_graememaciver_Projects_GM07-KeyStore_venv_lib_python2_7_site-packages_social_auth_db_base'
p811
(dp812
g6
(dp813
g8
S'_Users_graememaciver_Projects_GM07-KeyStore_venv_lib_python2_7_site-packages_social_auth_db_base.html'
p814
sg10
S'/Users/graememaciver/Projects/GM07-KeyStore/venv/lib/python2.7/site-packages/social_auth/db/base'
p815
sg12
g13
(g14
g15
NtRp816
(dp817
g18
I1
sg19
I0
sg20
I149
sg21
I0
sg22
I0
sg23
I99
sg24
I0
sbssg25
S'<\xfc\x86=\x90Fj\x83y\x99\xf2\xf5\xba\xa2&\xfb'
p818
ssS'_Users_graememaciver_Projects_GM07-KeyStore_venv_lib_python2_7_site-packages_django_views_decorators___init__'
p819
(dp820
g6
(dp821
g8
S'_Users_graememaciver_Projects_GM07-KeyStore_venv_lib_python2_7_site-packages_django_views_decorators___init__.html'
p822
sg10
S'/Users/graememaciver/Projects/GM07-KeyStore/venv/lib/python2.7/site-packages/django/views/decorators/__init__'
p823
sg12
g13
(g14
g15
NtRp824
(dp825
g18
I1
sg19
I0
sg20
I0
sg21
I0
sg22
I0
sg23
I0
sg24
I0
sbssg25
S'\xb0\xc8pN\xaf>\xa0\xbaz\x144\xe0A9\xb8?'
p826
ssS'_Users_graememaciver_Projects_GM07-KeyStore_venv_lib_python2_7_site-packages_django_utils_termcolors'
p827
(dp828
g6
(dp829
g8
S'_Users_graememaciver_Projects_GM07-KeyStore_venv_lib_python2_7_site-packages_django_utils_termcolors.html'
p830
sg10
S'/Users/graememaciver/Projects/GM07-KeyStore/venv/lib/python2.7/site-packages/django/utils/termcolors'
p831
sg12
g13
(g14
g15
NtRp832
(dp833
g18
I1
sg19
I0
sg20
I57
sg21
I0
sg22
I0
sg23
I40
sg24
I0
sbssg25
S'\x18\xc6\x8a\x88E\xa6\x84\xafY\xd5$\x88@\x9c\xf2\xaf'
p834
ssS'_Users_graememaciver_Projects_GM07-KeyStore_venv_lib_python2_7_site-packages_django_db_models_sql_subqueries'
p835
(dp836
g6
(dp837
g8
S'_Users_graememaciver_Projects_GM07-KeyStore_venv_lib_python2_7_site-packages_django_db_models_sql_subqueries.html'
p838
sg10
S'/Users/graememaciver/Projects/GM07-KeyStore/venv/lib/python2.7/site-packages/django/db/models/sql/subqueries'
p839
sg12
g13
(g14
g15
NtRp840
(dp841
g18
I1
sg19
I0
sg20
I136
sg21
I0
sg22
I0
sg23
I87
sg24
I0
sbssg25
S'_\x89=S\x89\x1do\xb387\x11<8\x83&\xba'
p842
ssS'_Users_graememaciver_Projects_GM07-KeyStore_venv_lib_python2_7_site-packages_django_core_urlresolvers'
p843
(dp844
g6
(dp845
g8
S'_Users_graememaciver_Projects_GM07-KeyStore_venv_lib_python2_7_site-packages_django_core_urlresolvers.html'
p846
sg10
S'/Users/graememaciver/Projects/GM07-KeyStore/venv/lib/python2.7/site-packages/django/core/urlresolvers'
p847
sg12
g13
(g14
g15
NtRp848
(dp849
g18
I1
sg19
I0
sg20
I349
sg21
I0
sg22
I0
sg23
I276
sg24
I0
sbssg25
S'-\xcfV\\\xe1\x9bM\xcb\x1b\x1e\x96OoU\xdaG'
p850
ssS'_Users_graememaciver_Projects_GM07-KeyStore_venv_lib_python2_7_site-packages_openid_kvform'
p851
(dp852
g6
(dp853
g8
S'_Users_graememaciver_Projects_GM07-KeyStore_venv_lib_python2_7_site-packages_openid_kvform.html'
p854
sg10
S'/Users/graememaciver/Projects/GM07-KeyStore/venv/lib/python2.7/site-packages/openid/kvform'
p855
sg12
g13
(g14
g15
NtRp856
(dp857
g18
I1
sg19
I0
sg20
I73
sg21
I0
sg22
I0
sg23
I64
sg24
I0
sbssg25
S'\x8e\xed\xc5\xf0n\xb5"\xb9\x18:>\xbd\xa3\x8f\xf3w'
p858
ssS'_Users_graememaciver_Projects_GM07-KeyStore_venv_lib_python2_7_site-packages_django_utils_timesince'
p859
(dp860
g6
(dp861
g8
S'_Users_graememaciver_Projects_GM07-KeyStore_venv_lib_python2_7_site-packages_django_utils_timesince.html'
p862
sg10
S'/Users/graememaciver/Projects/GM07-KeyStore/venv/lib/python2.7/site-packages/django/utils/timesince'
p863
sg12
g13
(g14
g15
NtRp864
(dp865
g18
I1
sg19
I0
sg20
I29
sg21
I0
sg22
I0
sg23
I23
sg24
I0
sbssg25
S'$\x8cBu\x0b\xc1\xdfN\x15\xde\xf7F\x8f\n\xe9\xbf'
p866
ssS'_Users_graememaciver_Projects_GM07-KeyStore_venv_lib_python2_7_site-packages_django_db_backends_sqlite3___init__'
p867
(dp868
g6
(dp869
g8
S'_Users_graememaciver_Projects_GM07-KeyStore_venv_lib_python2_7_site-packages_django_db_backends_sqlite3___init__.html'
p870
sg10
S'/Users/graememaciver/Projects/GM07-KeyStore/venv/lib/python2.7/site-packages/django/db/backends/sqlite3/__init__'
p871
sg12
g13
(g14
g15
NtRp872
(dp873
g18
I1
sg19
I0
sg20
I0
sg21
I0
sg22
I0
sg23
I0
sg24
I0
sbssg25
S'\xb0\xc8pN\xaf>\xa0\xbaz\x144\xe0A9\xb8?'
p874
ssS'_Users_graememaciver_Projects_GM07-KeyStore_venv_lib_python2_7_site-packages_django_core_files_locks'
p875
(dp876
g6
(dp877
g8
S'_Users_graememaciver_Projects_GM07-KeyStore_venv_lib_python2_7_site-packages_django_core_files_locks.html'
p878
sg10
S'/Users/graememaciver/Projects/GM07-KeyStore/venv/lib/python2.7/site-packages/django/core/files/locks'
p879
sg12
g13
(g14
g15
NtRp880
(dp881
g18
I1
sg19
I0
sg20
I40
sg21
I0
sg22
I0
sg23
I23
sg24
I0
sbssg25
S'\xce}lA\x9d\xae\x8f[oRM\xb4\x9aI[\xf4'
p882
ssS'_Users_graememaciver_Projects_GM07-KeyStore_venv_lib_python2_7_site-packages_django_test_utils'
p883
(dp884
g6
(dp885
g8
S'_Users_graememaciver_Projects_GM07-KeyStore_venv_lib_python2_7_site-packages_django_test_utils.html'
p886
sg10
S'/Users/graememaciver/Projects/GM07-KeyStore/venv/lib/python2.7/site-packages/django/test/utils'
p887
sg12
g13
(g14
g15
NtRp888
(dp889
g18
I1
sg19
I0
sg20
I188
sg21
I0
sg22
I0
sg23
I125
sg24
I0
sbssg25
S'\xbe\x0e\xf3\xcb\xa2$.\xbaE\x9d\xef\x9e\xdb#\xb4}'
p890
ssS'_Users_graememaciver_Projects_GM07-KeyStore_venv_lib_python2_7_site-packages_django_core_files_uploadhandler'
p891
(dp892
g6
(dp893
g8
S'_Users_graememaciver_Projects_GM07-KeyStore_venv_lib_python2_7_site-packages_django_core_files_uploadhandler.html'
p894
sg10
S'/Users/graememaciver/Projects/GM07-KeyStore/venv/lib/python2.7/site-packages/django/core/files/uploadhandler'
p895
sg12
g13
(g14
g15
NtRp896
(dp897
g18
I1
sg19
I0
sg20
I89
sg21
I0
sg22
I0
sg23
I52
sg24
I0
sbssg25
S'\x17o\xc8\xfb\xe9\x8c\xc9:\x13Q0\x86\x02\x91m\xb4'
p898
ssS'_Users_graememaciver_Projects_GM07-KeyStore_venv_lib_python2_7_site-packages_discover_runner___init__'
p899
(dp900
g6
(dp901
g8
S'_Users_graememaciver_Projects_GM07-KeyStore_venv_lib_python2_7_site-packages_discover_runner___init__.html'
p902
sg10
S'/Users/graememaciver/Projects/GM07-KeyStore/venv/lib/python2.7/site-packages/discover_runner/__init__'
p903
sg12
g13
(g14
g15
NtRp904
(dp905
g18
I1
sg19
I0
sg20
I5
sg21
I0
sg22
I0
sg23
I2
sg24
I0
sbssg25
S'I>~~*\xc4b\xf1h\x85\x9fU\xa3\x1b{('
p906
ssS'_Users_graememaciver_Projects_GM07-KeyStore_venv_lib_python2_7_site-packages_south_migration_base'
p907
(dp908
g6
(dp909
g8
S'_Users_graememaciver_Projects_GM07-KeyStore_venv_lib_python2_7_site-packages_south_migration_base.html'
p910
sg10
S'/Users/graememaciver/Projects/GM07-KeyStore/venv/lib/python2.7/site-packages/south/migration/base'
p911
sg12
g13
(g14
g15
NtRp912
(dp913
g18
I1
sg19
I0
sg20
I276
sg21
I0
sg22
I0
sg23
I83
sg24
I0
sbssg25
S"^\xf6\x05\x04\xd7R'}\xe7\x1d\xf7\x12\xc3\xec\x8f\xd5"
p914
ssS'_Users_graememaciver_Projects_GM07-KeyStore_venv_lib_python2_7_site-packages_django_db_backends_creation'
p915
(dp916
g6
(dp917
g8
S'_Users_graememaciver_Projects_GM07-KeyStore_venv_lib_python2_7_site-packages_django_db_backends_creation.html'
p918
sg10
S'/Users/graememaciver/Projects/GM07-KeyStore/venv/lib/python2.7/site-packages/django/db/backends/creation'
p919
sg12
g13
(g14
g15
NtRp920
(dp921
g18
I1
sg19
I0
sg20
I228
sg21
I0
sg22
I0
sg23
I98
sg24
I0
sbssg25
S'G\x8c\xcca\xd0\xd1\x84\x83\xbd\x11\xa8\x04\x9d\x01M\x1b'
p922
ssS'_Users_graememaciver_Projects_GM07-KeyStore_venv_lib_python2_7_site-packages_django_utils_unittest_util'
p923
(dp924
g6
(dp925
g8
S'_Users_graememaciver_Projects_GM07-KeyStore_venv_lib_python2_7_site-packages_django_utils_unittest_util.html'
p926
sg10
S'/Users/graememaciver/Projects/GM07-KeyStore/venv/lib/python2.7/site-packages/django/utils/unittest/util'
p927
sg12
g13
(g14
g15
NtRp928
(dp929
g18
I1
sg19
I0
sg20
I74
sg21
I0
sg22
I0
sg23
I67
sg24
I0
sbssg25
S'\xb2x_,\x84YY\x16\x91\xcb5(\xe8\x1c<\t'
p930
ssS'_Users_graememaciver_Projects_GM07-KeyStore_venv_lib_python2_7_site-packages_django_contrib_admin_sites'
p931
(dp932
g6
(dp933
g8
S'_Users_graememaciver_Projects_GM07-KeyStore_venv_lib_python2_7_site-packages_django_contrib_admin_sites.html'
p934
sg10
S'/Users/graememaciver/Projects/GM07-KeyStore/venv/lib/python2.7/site-packages/django/contrib/admin/sites'
p935
sg12
g13
(g14
g15
NtRp936
(dp937
g18
I1
sg19
I0
sg20
I204
sg21
I0
sg22
I0
sg23
I147
sg24
I0
sbssg25
S'\x80.\xc0z\xe4\xb7\x18\x1f\xd4\xff\xd3w\xfb\xf0^\x99'
p938
ssS'_Users_graememaciver_Projects_GM07-KeyStore_venv_lib_python2_7_site-packages_django_core_handlers_wsgi'
p939
(dp940
g6
(dp941
g8
S'_Users_graememaciver_Projects_GM07-KeyStore_venv_lib_python2_7_site-packages_django_core_handlers_wsgi.html'
p942
sg10
S'/Users/graememaciver/Projects/GM07-KeyStore/venv/lib/python2.7/site-packages/django/core/handlers/wsgi'
p943
sg12
g13
(g14
g15
NtRp944
(dp945
g18
I1
sg19
I0
sg20
I150
sg21
I0
sg22
I0
sg23
I110
sg24
I0
sbssg25
S"W1}\xfc&\xa7'\xe1\x8c\x120C\xc0\xed\x00\x8f"
p946
ssS'_Users_graememaciver_Projects_GM07-KeyStore_venv_lib_python2_7_site-packages_django_contrib_auth_models'
p947
(dp948
g6
(dp949
g8
S'_Users_graememaciver_Projects_GM07-KeyStore_venv_lib_python2_7_site-packages_django_contrib_auth_models.html'
p950
sg10
S'/Users/graememaciver/Projects/GM07-KeyStore/venv/lib/python2.7/site-packages/django/contrib/auth/models'
p951
sg12
g13
(g14
g15
NtRp952
(dp953
g18
I1
sg19
I0
sg20
I270
sg21
I0
sg22
I0
sg23
I127
sg24
I0
sbssg25
S"'\x8aRFk\x9f~\xd8\x7f\xc6U\xd3\xf8(Dn"
p954
ssS'_Users_graememaciver_Projects_GM07-KeyStore_venv_lib_python2_7_site-packages_django_contrib_admin_util'
p955
(dp956
g6
(dp957
g8
S'_Users_graememaciver_Projects_GM07-KeyStore_venv_lib_python2_7_site-packages_django_contrib_admin_util.html'
p958
sg10
S'/Users/graememaciver/Projects/GM07-KeyStore/venv/lib/python2.7/site-packages/django/contrib/admin/util'
p959
sg12
g13
(g14
g15
NtRp960
(dp961
g18
I1
sg19
I0
sg20
I275
sg21
I0
sg22
I0
sg23
I231
sg24
I0
sbssg25
S'\xbbq\x9a\nO\x8d\n\xf1>!\xdd\xa5\x949\xd9\xd6'
p962
ssS'_Users_graememaciver_Projects_GM07-KeyStore_venv_lib_python2_7_site-packages_south_hacks_django_1_0'
p963
(dp964
g6
(dp965
g8
S'_Users_graememaciver_Projects_GM07-KeyStore_venv_lib_python2_7_site-packages_south_hacks_django_1_0.html'
p966
sg10
S'/Users/graememaciver/Projects/GM07-KeyStore/venv/lib/python2.7/site-packages/south/hacks/django_1_0'
p967
sg12
g13
(g14
g15
NtRp968
(dp969
g18
I1
sg19
I0
sg20
I49
sg21
I0
sg22
I0
sg23
I17
sg24
I0
sbssg25
S'\xe0\xce\xb01\xe2t\xcc\xc6\x93\x02\xb4:\xbeM\xf3)'
p970
ssS'_Users_graememaciver_Projects_GM07-KeyStore_venv_lib_python2_7_site-packages_django_utils_datetime_safe'
p971
(dp972
g6
(dp973
g8
S'_Users_graememaciver_Projects_GM07-KeyStore_venv_lib_python2_7_site-packages_django_utils_datetime_safe.html'
p974
sg10
S'/Users/graememaciver/Projects/GM07-KeyStore/venv/lib/python2.7/site-packages/django/utils/datetime_safe'
p975
sg12
g13
(g14
g15
NtRp976
(dp977
g18
I1
sg19
I0
sg20
I56
sg21
I0
sg22
I0
sg23
I42
sg24
I0
sbssg25
S'\xcf\x16v\x83I\x1c\x906G\x91=\xec\x94\xfdf\xbe'
p978
ssS'_Users_graememaciver_Projects_GM07-KeyStore_venv_lib_python2_7_site-packages_django_core_serializers_xml_serializer'
p979
(dp980
g6
(dp981
g8
S'_Users_graememaciver_Projects_GM07-KeyStore_venv_lib_python2_7_site-packages_django_core_serializers_xml_serializer.html'
p982
sg10
S'/Users/graememaciver/Projects/GM07-KeyStore/venv/lib/python2.7/site-packages/django/core/serializers/xml_serializer'
p983
sg12
g13
(g14
g15
NtRp984
(dp985
g18
I1
sg19
I0
sg20
I209
sg21
I0
sg22
I0
sg23
I163
sg24
I0
sbssg25
S'D\x84+U\xaa{aF\x82\x85j,\x93x\xce\xa8'
p986
ssS'_Users_graememaciver_Projects_GM07-KeyStore_venv_lib_python2_7_site-packages_django_core_cache_backends___init__'
p987
(dp988
g6
(dp989
g8
S'_Users_graememaciver_Projects_GM07-KeyStore_venv_lib_python2_7_site-packages_django_core_cache_backends___init__.html'
p990
sg10
S'/Users/graememaciver/Projects/GM07-KeyStore/venv/lib/python2.7/site-packages/django/core/cache/backends/__init__'
p991
sg12
g13
(g14
g15
NtRp992
(dp993
g18
I1
sg19
I0
sg20
I0
sg21
I0
sg22
I0
sg23
I0
sg24
I0
sbssg25
S'\xb0\xc8pN\xaf>\xa0\xbaz\x144\xe0A9\xb8?'
p994
ssS'_Users_graememaciver_Projects_GM07-KeyStore_venv_lib_python2_7_site-packages_django_forms___init__'
p995
(dp996
g6
(dp997
g8
S'_Users_graememaciver_Projects_GM07-KeyStore_venv_lib_python2_7_site-packages_django_forms___init__.html'
p998
sg10
S'/Users/graememaciver/Projects/GM07-KeyStore/venv/lib/python2.7/site-packages/django/forms/__init__'
p999
sg12
g13
(g14
g15
NtRp1000
(dp1001
g18
I1
sg19
I0
sg20
I6
sg21
I0
sg22
I0
sg23
I0
sg24
I0
sbssg25
S"\xfb\x98'\xfe<\x95\xf2Q\xfe,\xaeF\t[\xfeP"
p1002
ssS'_Users_graememaciver_Projects_GM07-KeyStore_venv_lib_python2_7_site-packages_south_management___init__'
p1003
(dp1004
g6
(dp1005
g8
S'_Users_graememaciver_Projects_GM07-KeyStore_venv_lib_python2_7_site-packages_south_management___init__.html'
p1006
sg10
S'/Users/graememaciver/Projects/GM07-KeyStore/venv/lib/python2.7/site-packages/south/management/__init__'
p1007
sg12
g13
(g14
g15
NtRp1008
(dp1009
g18
I1
sg19
I0
sg20
I0
sg21
I0
sg22
I0
sg23
I0
sg24
I0
sbssg25
S'\xb0\xc8pN\xaf>\xa0\xbaz\x144\xe0A9\xb8?'
p1010
ssS'_Users_graememaciver_Projects_GM07-KeyStore_venv_lib_python2_7_site-packages_django_contrib_staticfiles_utils'
p1011
(dp1012
g6
(dp1013
g8
S'_Users_graememaciver_Projects_GM07-KeyStore_venv_lib_python2_7_site-packages_django_contrib_staticfiles_utils.html'
p1014
sg10
S'/Users/graememaciver/Projects/GM07-KeyStore/venv/lib/python2.7/site-packages/django/contrib/staticfiles/utils'
p1015
sg12
g13
(g14
g15
NtRp1016
(dp1017
g18
I1
sg19
I0
sg20
I37
sg21
I0
sg22
I0
sg23
I30
sg24
I0
sbssg25
S'Q\x99\xe3\x98\xf4\xbc\tTg\xbc\xed\xbd\\\xf9Q\xdd'
p1018
ssS'_Users_graememaciver_Projects_GM07-KeyStore_venv_lib_python2_7_site-packages_django_middleware___init__'
p1019
(dp1020
g6
(dp1021
g8
S'_Users_graememaciver_Projects_GM07-KeyStore_venv_lib_python2_7_site-packages_django_middleware___init__.html'
p1022
sg10
S'/Users/graememaciver/Projects/GM07-KeyStore/venv/lib/python2.7/site-packages/django/middleware/__init__'
p1023
sg12
g13
(g14
g15
NtRp1024
(dp1025
g18
I1
sg19
I0
sg20
I0
sg21
I0
sg22
I0
sg23
I0
sg24
I0
sbssg25
S'\xb0\xc8pN\xaf>\xa0\xbaz\x144\xe0A9\xb8?'
p1026
ssS'_Users_graememaciver_Projects_GM07-KeyStore_venv_lib_python2_7_site-packages_social_auth_migrations_0001_initial'
p1027
(dp1028
g6
(dp1029
g8
S'_Users_graememaciver_Projects_GM07-KeyStore_venv_lib_python2_7_site-packages_social_auth_migrations_0001_initial.html'
p1030
sg10
S'/Users/graememaciver/Projects/GM07-KeyStore/venv/lib/python2.7/site-packages/social_auth/migrations/0001_initial'
p1031
sg12
g13
(g14
g15
NtRp1032
(dp1033
g18
I1
sg19
I0
sg20
I28
sg21
I0
sg22
I0
sg23
I4
sg24
I0
sbssg25
S'\x8fN5\x1dj\xd8w\xb2g\x17\x90\xe3\xfas\xa3\xae'
p1034
ssS'_Users_graememaciver_Projects_GM07-KeyStore_venv_lib_python2_7_site-packages_django_test_signals'
p1035
(dp1036
g6
(dp1037
g8
S'_Users_graememaciver_Projects_GM07-KeyStore_venv_lib_python2_7_site-packages_django_test_signals.html'
p1038
sg10
S'/Users/graememaciver/Projects/GM07-KeyStore/venv/lib/python2.7/site-packages/django/test/signals'
p1039
sg12
g13
(g14
g15
NtRp1040
(dp1041
g18
I1
sg19
I0
sg20
I50
sg21
I0
sg22
I0
sg23
I35
sg24
I0
sbssg25
S'\xd2\xaet\x89\x93\xe1\xca\xecB\x94{\xfd$Boz'
p1042
ssS'_Users_graememaciver_Projects_GM07-KeyStore_venv_lib_python2_7_site-packages_django_utils_importlib'
p1043
(dp1044
g6
(dp1045
g8
S'_Users_graememaciver_Projects_GM07-KeyStore_venv_lib_python2_7_site-packages_django_utils_importlib.html'
p1046
sg10
S'/Users/graememaciver/Projects/GM07-KeyStore/venv/lib/python2.7/site-packages/django/utils/importlib'
p1047
sg12
g13
(g14
g15
NtRp1048
(dp1049
g18
I1
sg19
I0
sg20
I23
sg21
I0
sg22
I0
sg23
I6
sg24
I0
sbssg25
S'\x02p\xb8\xc7\x01M\x08\xaf\xc4K>\x95\xf3\xfa9\xc9'
p1050
ssS'_Users_graememaciver_Projects_GM07-KeyStore_venv_lib_python2_7_site-packages_django_core_management_validation'
p1051
(dp1052
g6
(dp1053
g8
S'_Users_graememaciver_Projects_GM07-KeyStore_venv_lib_python2_7_site-packages_django_core_management_validation.html'
p1054
sg10
S'/Users/graememaciver/Projects/GM07-KeyStore/venv/lib/python2.7/site-packages/django/core/management/validation'
p1055
sg12
g13
(g14
g15
NtRp1056
(dp1057
g18
I1
sg19
I0
sg20
I246
sg21
I0
sg22
I0
sg23
I121
sg24
I0
sbssg25
S'\x10 \x00\xba~\x0e\xc1Cyc\xf5\xc7V\xddF\xb4'
p1058
ssS'_Users_graememaciver_Projects_GM07-KeyStore_keys_migrations___init__'
p1059
(dp1060
g6
(dp1061
g8
S'_Users_graememaciver_Projects_GM07-KeyStore_keys_migrations___init__.html'
p1062
sg10
S'/Users/graememaciver/Projects/GM07-KeyStore/keys/migrations/__init__'
p1063
sg12
g13
(g14
g15
NtRp1064
(dp1065
g18
I1
sg19
I0
sg20
I0
sg21
I0
sg22
I0
sg23
I0
sg24
I0
sbssg25
S'\xb0\xc8pN\xaf>\xa0\xbaz\x144\xe0A9\xb8?'
p1066
ssS'_Users_graememaciver_Projects_GM07-KeyStore_venv_lib_python2_7_site-packages_south_models'
p1067
(dp1068
g6
(dp1069
g8
S'_Users_graememaciver_Projects_GM07-KeyStore_venv_lib_python2_7_site-packages_south_models.html'
p1070
sg10
S'/Users/graememaciver/Projects/GM07-KeyStore/venv/lib/python2.7/site-packages/south/models'
p1071
sg12
g13
(g14
g15
NtRp1072
(dp1073
g18
I1
sg19
I0
sg20
I21
sg21
I0
sg22
I0
sg23
I2
sg24
I0
sbssg25
S'xMeW\xa9\xb4D9\xa1\x8c\xd5\x13|?Kd'
p1074
ssS'_Users_graememaciver_Projects_GM07-KeyStore_keys___init__'
p1075
(dp1076
g6
(dp1077
g8
S'_Users_graememaciver_Projects_GM07-KeyStore_keys___init__.html'
p1078
sg10
S'/Users/graememaciver/Projects/GM07-KeyStore/keys/__init__'
p1079
sg12
g13
(g14
g15
NtRp1080
(dp1081
g18
I1
sg19
I0
sg20
I0
sg21
I0
sg22
I0
sg23
I0
sg24
I0
sbssg25
S'\xb0\xc8pN\xaf>\xa0\xbaz\x144\xe0A9\xb8?'
p1082
ssS'_Users_graememaciver_Projects_GM07-KeyStore_venv_lib_python2_7_site-packages_south_introspection_plugins_django_audit_log'
p1083
(dp1084
g6
(dp1085
g8
S'_Users_graememaciver_Projects_GM07-KeyStore_venv_lib_python2_7_site-packages_south_introspection_plugins_django_audit_log.html'
p1086
sg10
S'/Users/graememaciver/Projects/GM07-KeyStore/venv/lib/python2.7/site-packages/south/introspection_plugins/django_audit_log'
p1087
sg12
g13
(g14
g15
NtRp1088
(dp1089
g18
I1
sg19
I0
sg20
I10
sg21
I0
sg22
I0
sg23
I6
sg24
I0
sbssg25
S'\xc9)\xce\xfa\x10\x1f\xb8s\x1f,HK\x05\xe6\x8a\x18'
p1090
ssS'_Users_graememaciver_Projects_GM07-KeyStore_venv_lib_python2_7_site-packages_django_template_loaders___init__'
p1091
(dp1092
g6
(dp1093
g8
S'_Users_graememaciver_Projects_GM07-KeyStore_venv_lib_python2_7_site-packages_django_template_loaders___init__.html'
p1094
sg10
S'/Users/graememaciver/Projects/GM07-KeyStore/venv/lib/python2.7/site-packages/django/template/loaders/__init__'
p1095
sg12
g13
(g14
g15
NtRp1096
(dp1097
g18
I1
sg19
I0
sg20
I0
sg21
I0
sg22
I0
sg23
I0
sg24
I0
sbssg25
S'\xb0\xc8pN\xaf>\xa0\xbaz\x144\xe0A9\xb8?'
p1098
ssS'_Users_graememaciver_Projects_GM07-KeyStore_venv_lib_python2_7_site-packages_django_db_backends_sqlite3_client'
p1099
(dp1100
g6
(dp1101
g8
S'_Users_graememaciver_Projects_GM07-KeyStore_venv_lib_python2_7_site-packages_django_db_backends_sqlite3_client.html'
p1102
sg10
S'/Users/graememaciver/Projects/GM07-KeyStore/venv/lib/python2.7/site-packages/django/db/backends/sqlite3/client'
p1103
sg12
g13
(g14
g15
NtRp1104
(dp1105
g18
I1
sg19
I0
sg20
I10
sg21
I0
sg22
I0
sg23
I4
sg24
I0
sbssg25
S'\xc1M\xc7\x1f ySpt\x02\xcb\x82\xbeT\x1c\xaa'
p1106
ssS'_Users_graememaciver_Projects_GM07-KeyStore_venv_lib_python2_7_site-packages_django_utils_version'
p1107
(dp1108
g6
(dp1109
g8
S'_Users_graememaciver_Projects_GM07-KeyStore_venv_lib_python2_7_site-packages_django_utils_version.html'
p1110
sg10
S'/Users/graememaciver/Projects/GM07-KeyStore/venv/lib/python2.7/site-packages/django/utils/version'
p1111
sg12
g13
(g14
g15
NtRp1112
(dp1113
g18
I1
sg19
I0
sg20
I29
sg21
I0
sg22
I0
sg23
I15
sg24
I0
sbssg25
S'\xba\xcb\xe5|\x18\xbcUd\xd6q\x19\xc9p-\xb6\xb2'
p1114
ssS'_Users_graememaciver_Projects_GM07-KeyStore_venv_lib_python2_7_site-packages_django_db_backends_sqlite3_base'
p1115
(dp1116
g6
(dp1117
g8
S'_Users_graememaciver_Projects_GM07-KeyStore_venv_lib_python2_7_site-packages_django_db_backends_sqlite3_base.html'
p1118
sg10
S'/Users/graememaciver/Projects/GM07-KeyStore/venv/lib/python2.7/site-packages/django/db/backends/sqlite3/base'
p1119
sg12
g13
(g14
g15
NtRp1120
(dp1121
g18
I1
sg19
I0
sg20
I233
sg21
I0
sg22
I0
sg23
I100
sg24
I0
sbssg25
S'N\xe5\xce\x8a\xdf\xa0\xe1\xe3\xe3\x07\xeaW"9\x185'
p1122
ssS'_Users_graememaciver_Projects_GM07-KeyStore_interface___init__'
p1123
(dp1124
g6
(dp1125
g8
S'_Users_graememaciver_Projects_GM07-KeyStore_interface___init__.html'
p1126
sg10
S'/Users/graememaciver/Projects/GM07-KeyStore/interface/__init__'
p1127
sg12
g13
(g14
g15
NtRp1128
(dp1129
g18
I1
sg19
I0
sg20
I0
sg21
I0
sg22
I0
sg23
I0
sg24
I0
sbssg25
S'\xb0\xc8pN\xaf>\xa0\xbaz\x144\xe0A9\xb8?'
p1130
ssS'_Users_graememaciver_Projects_GM07-KeyStore_venv_lib_python2_7_site-packages_django_contrib_sessions_backends_base'
p1131
(dp1132
g6
(dp1133
g8
S'_Users_graememaciver_Projects_GM07-KeyStore_venv_lib_python2_7_site-packages_django_contrib_sessions_backends_base.html'
p1134
sg10
S'/Users/graememaciver/Projects/GM07-KeyStore/venv/lib/python2.7/site-packages/django/contrib/sessions/backends/base'
p1135
sg12
g13
(g14
g15
NtRp1136
(dp1137
g18
I1
sg19
I0
sg20
I176
sg21
I0
sg22
I0
sg23
I117
sg24
I0
sbssg25
S'>u\xdd\x93\xf2\x04\xbf\x13\xa8\xce\xf7\xe1\x08\xce.\xfe'
p1138
ssS'_Users_graememaciver_Projects_GM07-KeyStore_venv_lib_python2_7_site-packages_django_template_smartif'
p1139
(dp1140
g6
(dp1141
g8
S'_Users_graememaciver_Projects_GM07-KeyStore_venv_lib_python2_7_site-packages_django_template_smartif.html'
p1142
sg10
S'/Users/graememaciver/Projects/GM07-KeyStore/venv/lib/python2.7/site-packages/django/template/smartif'
p1143
sg12
g13
(g14
g15
NtRp1144
(dp1145
g18
I1
sg19
I0
sg20
I104
sg21
I0
sg22
I0
sg23
I61
sg24
I0
sbssg25
S'hV?\x8e}\x0be\xff@`D\xa5\x9et\x1f\x03'
p1146
ssS'_Users_graememaciver_Projects_GM07-KeyStore_venv_lib_python2_7_site-packages_django_utils_crypto'
p1147
(dp1148
g6
(dp1149
g8
S'_Users_graememaciver_Projects_GM07-KeyStore_venv_lib_python2_7_site-packages_django_utils_crypto.html'
p1150
sg10
S'/Users/graememaciver/Projects/GM07-KeyStore/venv/lib/python2.7/site-packages/django/utils/crypto'
p1151
sg12
g13
(g14
g15
NtRp1152
(dp1153
g18
I1
sg19
I0
sg20
I78
sg21
I0
sg22
I0
sg23
I53
sg24
I0
sbssg25
S'|\xd1\xdd9\xae\xefb\xfa\xb0\xbc\x8f\xaf399\xb4'
p1154
ssS'_Users_graememaciver_Projects_GM07-KeyStore_venv_lib_python2_7_site-packages_south_migration_utils'
p1155
(dp1156
g6
(dp1157
g8
S'_Users_graememaciver_Projects_GM07-KeyStore_venv_lib_python2_7_site-packages_south_migration_utils.html'
p1158
sg10
S'/Users/graememaciver/Projects/GM07-KeyStore/venv/lib/python2.7/site-packages/south/migration/utils'
p1159
sg12
g13
(g14
g15
NtRp1160
(dp1161
g18
I1
sg19
I0
sg20
I61
sg21
I0
sg22
I0
sg23
I21
sg24
I0
sbssg25
S'\xbcL\xb8{QG\xfe\xb4\xbc\xbe\x01\x81\x80\xce\xc3X'
p1162
ssS'_Users_graememaciver_Projects_GM07-KeyStore_venv_lib_python2_7_site-packages_django_db_models_signals'
p1163
(dp1164
g6
(dp1165
g8
S'_Users_graememaciver_Projects_GM07-KeyStore_venv_lib_python2_7_site-packages_django_db_models_signals.html'
p1166
sg10
S'/Users/graememaciver/Projects/GM07-KeyStore/venv/lib/python2.7/site-packages/django/db/models/signals'
p1167
sg12
g13
(g14
g15
NtRp1168
(dp1169
g18
I1
sg19
I0
sg20
I10
sg21
I0
sg22
I0
sg23
I0
sg24
I0
sbssg25
S'\x18B\xc9\xeaVX\xccj\xc2)\xbe\xfb\xee\xf2\x95\x95'
p1170
ssS'_Users_graememaciver_Projects_GM07-KeyStore_venv_lib_python2_7_site-packages_django_core_management___init__'
p1171
(dp1172
g6
(dp1173
g8
S'_Users_graememaciver_Projects_GM07-KeyStore_venv_lib_python2_7_site-packages_django_core_management___init__.html'
p1174
sg10
S'/Users/graememaciver/Projects/GM07-KeyStore/venv/lib/python2.7/site-packages/django/core/management/__init__'
p1175
sg12
g13
(g14
g15
NtRp1176
(dp1177
g18
I1
sg19
I0
sg20
I210
sg21
I0
sg22
I0
sg23
I99
sg24
I0
sbssg25
S'\x94\r\xc52/\xc1\x0f*@\xa4IO\xf1YL>'
p1178
ssS'_Users_graememaciver_Projects_GM07-KeyStore_venv_lib_python2_7_site-packages_django_http_utils'
p1179
(dp1180
g6
(dp1181
g8
S'_Users_graememaciver_Projects_GM07-KeyStore_venv_lib_python2_7_site-packages_django_http_utils.html'
p1182
sg10
S'/Users/graememaciver/Projects/GM07-KeyStore/venv/lib/python2.7/site-packages/django/http/utils'
p1183
sg12
g13
(g14
g15
NtRp1184
(dp1185
g18
I1
sg19
I0
sg20
I43
sg21
I0
sg22
I0
sg23
I39
sg24
I0
sbssg25
S'~k\x01\xbaxd2\xab\xa3\xa0\xda0\x07l\x17\x13'
p1186
ssS'_Users_graememaciver_Projects_GM07-KeyStore_venv_lib_python2_7_site-packages_django_contrib_admin_forms'
p1187
(dp1188
g6
(dp1189
g8
S'_Users_graememaciver_Projects_GM07-KeyStore_venv_lib_python2_7_site-packages_django_contrib_admin_forms.html'
p1190
sg10
S'/Users/graememaciver/Projects/GM07-KeyStore/venv/lib/python2.7/site-packages/django/contrib/admin/forms'
p1191
sg12
g13
(g14
g15
NtRp1192
(dp1193
g18
I1
sg19
I0
sg20
I20
sg21
I0
sg22
I0
sg23
I11
sg24
I0
sbssg25
S'\xb3\x8b\x18/\xb9h\x14\x1e\x00C\x96\x9f;\xd1M\x0f'
p1194
ssS'_Users_graememaciver_Projects_GM07-KeyStore_venv_lib_python2_7_site-packages_django_views_decorators_cache'
p1195
(dp1196
g6
(dp1197
g8
S'_Users_graememaciver_Projects_GM07-KeyStore_venv_lib_python2_7_site-packages_django_views_decorators_cache.html'
p1198
sg10
S'/Users/graememaciver/Projects/GM07-KeyStore/venv/lib/python2.7/site-packages/django/views/decorators/cache'
p1199
sg12
g13
(g14
g15
NtRp1200
(dp1201
g18
I1
sg19
I0
sg20
I40
sg21
I0
sg22
I0
sg23
I31
sg24
I0
sbssg25
S'\xb0\xf5\xb4nW\x13d\x8e\xb2\xe1*F\x18\x86\xc9g'
p1202
ssS'_Users_graememaciver_Projects_GM07-KeyStore_venv_lib_python2_7_site-packages_django_db_models_sql_expressions'
p1203
(dp1204
g6
(dp1205
g8
S'_Users_graememaciver_Projects_GM07-KeyStore_venv_lib_python2_7_site-packages_django_db_models_sql_expressions.html'
p1206
sg10
S'/Users/graememaciver/Projects/GM07-KeyStore/venv/lib/python2.7/site-packages/django/db/models/sql/expressions'
p1207
sg12
g13
(g14
g15
NtRp1208
(dp1209
g18
I1
sg19
I0
sg20
I74
sg21
I0
sg22
I0
sg23
I61
sg24
I0
sbssg25
S'\x05\xdf\xd8\x9e\x0e\xff\x10e\xad`Q\xd62\xd10\xd5'
p1210
ssS'_Users_graememaciver_Projects_GM07-KeyStore_venv_lib_python2_7_site-packages_django_contrib_admin_models'
p1211
(dp1212
g6
(dp1213
g8
S'_Users_graememaciver_Projects_GM07-KeyStore_venv_lib_python2_7_site-packages_django_contrib_admin_models.html'
p1214
sg10
S'/Users/graememaciver/Projects/GM07-KeyStore/venv/lib/python2.7/site-packages/django/contrib/admin/models'
p1215
sg12
g13
(g14
g15
NtRp1216
(dp1217
g18
I1
sg19
I0
sg20
I52
sg21
I0
sg22
I0
sg23
I17
sg24
I0
sbssg25
S'\x06\x9fC\x89\xd8 \xd5`\xd8\xdf\x01O\x0c\xdf\x11\xc7'
p1218
ssS'_Users_graememaciver_Projects_GM07-KeyStore_venv_lib_python2_7_site-packages_django_template___init__'
p1219
(dp1220
g6
(dp1221
g8
S'_Users_graememaciver_Projects_GM07-KeyStore_venv_lib_python2_7_site-packages_django_template___init__.html'
p1222
sg10
S'/Users/graememaciver/Projects/GM07-KeyStore/venv/lib/python2.7/site-packages/django/template/__init__'
p1223
sg12
g13
(g14
g15
NtRp1224
(dp1225
g18
I1
sg19
I0
sg20
I6
sg21
I0
sg22
I0
sg23
I0
sg24
I0
sbssg25
S'\xb6\xa0l\x13\xa8q\x87\r\xa8\xea\xdd\x99\xef\xf5k\xd3'
p1226
ssS'_Users_graememaciver_Projects_GM07-KeyStore_venv_lib_python2_7_site-packages_django_core_mail_utils'
p1227
(dp1228
g6
(dp1229
g8
S'_Users_graememaciver_Projects_GM07-KeyStore_venv_lib_python2_7_site-packages_django_core_mail_utils.html'
p1230
sg10
S'/Users/graememaciver/Projects/GM07-KeyStore/venv/lib/python2.7/site-packages/django/core/mail/utils'
p1231
sg12
g13
(g14
g15
NtRp1232
(dp1233
g18
I1
sg19
I0
sg20
I9
sg21
I0
sg22
I0
sg23
I4
sg24
I0
sbssg25
S'q\x8f\x86\xa8\x10\xa1\x04\x98^\x0e\xe8\x93\xb7X\xaan'
p1234
ssS'_Users_graememaciver_Projects_GM07-KeyStore_venv_lib_python2_7_site-packages_south_exceptions'
p1235
(dp1236
g6
(dp1237
g8
S'_Users_graememaciver_Projects_GM07-KeyStore_venv_lib_python2_7_site-packages_south_exceptions.html'
p1238
sg10
S'/Users/graememaciver/Projects/GM07-KeyStore/venv/lib/python2.7/site-packages/south/exceptions'
p1239
sg12
g13
(g14
g15
NtRp1240
(dp1241
g18
I1
sg19
I0
sg20
I94
sg21
I0
sg22
I0
sg23
I43
sg24
I0
sbssg25
S'\x93\xf8g\t\xac\x04\xdd\xed\xe7\x8d`\xeeP\xaf\xddA'
p1242
ssS'_Users_graememaciver_Projects_GM07-KeyStore_venv_lib_python2_7_site-packages_django_core_signals'
p1243
(dp1244
g6
(dp1245
g8
S'_Users_graememaciver_Projects_GM07-KeyStore_venv_lib_python2_7_site-packages_django_core_signals.html'
p1246
sg10
S'/Users/graememaciver/Projects/GM07-KeyStore/venv/lib/python2.7/site-packages/django/core/signals'
p1247
sg12
g13
(g14
g15
NtRp1248
(dp1249
g18
I1
sg19
I0
sg20
I4
sg21
I0
sg22
I0
sg23
I0
sg24
I0
sbssg25
S'\xa8\x92\x82\x13=\x82/\x06\xba\xb2\xa6\xad\xc4o\x81\xc2'
p1250
ssS'_Users_graememaciver_Projects_GM07-KeyStore_venv_lib_python2_7_site-packages_django_views_static'
p1251
(dp1252
g6
(dp1253
g8
S'_Users_graememaciver_Projects_GM07-KeyStore_venv_lib_python2_7_site-packages_django_views_static.html'
p1254
sg10
S'/Users/graememaciver/Projects/GM07-KeyStore/venv/lib/python2.7/site-packages/django/views/static'
p1255
sg12
g13
(g14
g15
NtRp1256
(dp1257
g18
I1
sg19
I0
sg20
I76
sg21
I0
sg22
I0
sg23
I57
sg24
I0
sbssg25
S'\xd2\xfe\xdd\xc7\xb1\xa9"\x8e\xe1K~\xff\xb3g\xea\xd1'
p1258
ssS'_Users_graememaciver_Projects_GM07-KeyStore_venv_lib_python2_7_site-packages_django_utils_unittest___init__'
p1259
(dp1260
g6
(dp1261
g8
S'_Users_graememaciver_Projects_GM07-KeyStore_venv_lib_python2_7_site-packages_django_utils_unittest___init__.html'
p1262
sg10
S'/Users/graememaciver/Projects/GM07-KeyStore/venv/lib/python2.7/site-packages/django/utils/unittest/__init__'
p1263
sg12
g13
(g14
g15
NtRp1264
(dp1265
g18
I1
sg19
I0
sg20
I23
sg21
I0
sg22
I0
sg23
I17
sg24
I0
sbssg25
S'\xccP\x9c\xf4\x9b(\x7f#1\xb9\xe3X7\xb4\xe6B'
p1266
ssS'_Users_graememaciver_Projects_GM07-KeyStore_venv_lib_python2_7_site-packages_django_contrib_staticfiles_management___init__'
p1267
(dp1268
g6
(dp1269
g8
S'_Users_graememaciver_Projects_GM07-KeyStore_venv_lib_python2_7_site-packages_django_contrib_staticfiles_management___init__.html'
p1270
sg10
S'/Users/graememaciver/Projects/GM07-KeyStore/venv/lib/python2.7/site-packages/django/contrib/staticfiles/management/__init__'
p1271
sg12
g13
(g14
g15
NtRp1272
(dp1273
g18
I1
sg19
I0
sg20
I0
sg21
I0
sg22
I0
sg23
I0
sg24
I0
sbssg25
S'\xb0\xc8pN\xaf>\xa0\xbaz\x144\xe0A9\xb8?'
p1274
ssS'_Users_graememaciver_Projects_GM07-KeyStore_venv_lib_python2_7_site-packages_django_utils_translation_trans_real'
p1275
(dp1276
g6
(dp1277
g8
S'_Users_graememaciver_Projects_GM07-KeyStore_venv_lib_python2_7_site-packages_django_utils_translation_trans_real.html'
p1278
sg10
S'/Users/graememaciver/Projects/GM07-KeyStore/venv/lib/python2.7/site-packages/django/utils/translation/trans_real'
p1279
sg12
g13
(g14
g15
NtRp1280
(dp1281
g18
I1
sg19
I0
sg20
I366
sg21
I0
sg22
I0
sg23
I226
sg24
I0
sbssg25
S'\x87n\x048\xcd)\x1c(|\xadS\xea\xba\xb4p\xa1'
p1282
ssS'_Users_graememaciver_Projects_GM07-KeyStore_venv_lib_python2_7_site-packages_django_http_multipartparser'
p1283
(dp1284
g6
(dp1285
g8
S'_Users_graememaciver_Projects_GM07-KeyStore_venv_lib_python2_7_site-packages_django_http_multipartparser.html'
p1286
sg10
S'/Users/graememaciver/Projects/GM07-KeyStore/venv/lib/python2.7/site-packages/django/http/multipartparser'
p1287
sg12
g13
(g14
g15
NtRp1288
(dp1289
g18
I1
sg19
I0
sg20
I348
sg21
I0
sg22
I0
sg23
I296
sg24
I0
sbssg25
S'\x90\xcc\xa5\x82\xa3\xfcp[\r\xadc%\xf6\x0e.\xb3'
p1290
ssS'_Users_graememaciver_Projects_GM07-KeyStore_venv_lib_python2_7_site-packages_south_db_sqlite3'
p1291
(dp1292
g6
(dp1293
g8
S'_Users_graememaciver_Projects_GM07-KeyStore_venv_lib_python2_7_site-packages_south_db_sqlite3.html'
p1294
sg10
S'/Users/graememaciver/Projects/GM07-KeyStore/venv/lib/python2.7/site-packages/south/db/sqlite3'
p1295
sg12
g13
(g14
g15
NtRp1296
(dp1297
g18
I1
sg19
I0
sg20
I147
sg21
I0
sg22
I0
sg23
I50
sg24
I0
sbssg25
S"\x17\xa3%,\xe4b\xb6\xf4\xfc'\xfdXW,Y\x07"
p1298
ssS'_Users_graememaciver_Projects_GM07-KeyStore_venv_lib_python2_7_site-packages_social_auth_migrations___init__'
p1299
(dp1300
g6
(dp1301
g8
S'_Users_graememaciver_Projects_GM07-KeyStore_venv_lib_python2_7_site-packages_social_auth_migrations___init__.html'
p1302
sg10
S'/Users/graememaciver/Projects/GM07-KeyStore/venv/lib/python2.7/site-packages/social_auth/migrations/__init__'
p1303
sg12
g13
(g14
g15
NtRp1304
(dp1305
g18
I1
sg19
I0
sg20
I0
sg21
I0
sg22
I0
sg23
I0
sg24
I0
sbssg25
S'\xb0\xc8pN\xaf>\xa0\xbaz\x144\xe0A9\xb8?'
p1306
ssS'_Users_graememaciver_Projects_GM07-KeyStore_venv_lib_python2_7_site-packages_django_contrib_sessions___init__'
p1307
(dp1308
g6
(dp1309
g8
S'_Users_graememaciver_Projects_GM07-KeyStore_venv_lib_python2_7_site-packages_django_contrib_sessions___init__.html'
p1310
sg10
S'/Users/graememaciver/Projects/GM07-KeyStore/venv/lib/python2.7/site-packages/django/contrib/sessions/__init__'
p1311
sg12
g13
(g14
g15
NtRp1312
(dp1313
g18
I1
sg19
I0
sg20
I0
sg21
I0
sg22
I0
sg23
I0
sg24
I0
sbssg25
S'\xb0\xc8pN\xaf>\xa0\xbaz\x144\xe0A9\xb8?'
p1314
ssS'_Users_graememaciver_Projects_GM07-KeyStore_venv_lib_python2_7_site-packages_django_contrib_admin___init__'
p1315
(dp1316
g6
(dp1317
g8
S'_Users_graememaciver_Projects_GM07-KeyStore_venv_lib_python2_7_site-packages_django_contrib_admin___init__.html'
p1318
sg10
S'/Users/graememaciver/Projects/GM07-KeyStore/venv/lib/python2.7/site-packages/django/contrib/admin/__init__'
p1319
sg12
g13
(g14
g15
NtRp1320
(dp1321
g18
I1
sg19
I0
sg20
I19
sg21
I0
sg22
I0
sg23
I13
sg24
I0
sbssg25
S'yXLFz\xa7\xfe#\x11\xea+\xc9\x1dR"\xfc'
p1322
ssS'_Users_graememaciver_Projects_GM07-KeyStore_venv_lib_python2_7_site-packages_django_core___init__'
p1323
(dp1324
g6
(dp1325
g8
S'_Users_graememaciver_Projects_GM07-KeyStore_venv_lib_python2_7_site-packages_django_core___init__.html'
p1326
sg10
S'/Users/graememaciver/Projects/GM07-KeyStore/venv/lib/python2.7/site-packages/django/core/__init__'
p1327
sg12
g13
(g14
g15
NtRp1328
(dp1329
g18
I1
sg19
I0
sg20
I0
sg21
I0
sg22
I0
sg23
I0
sg24
I0
sbssg25
S'\xb0\xc8pN\xaf>\xa0\xbaz\x144\xe0A9\xb8?'
p1330
ssS'_Users_graememaciver_Projects_GM07-KeyStore_venv_lib_python2_7_site-packages_django_db_models_sql_where'
p1331
(dp1332
g6
(dp1333
g8
S'_Users_graememaciver_Projects_GM07-KeyStore_venv_lib_python2_7_site-packages_django_db_models_sql_where.html'
p1334
sg10
S'/Users/graememaciver/Projects/GM07-KeyStore/venv/lib/python2.7/site-packages/django/db/models/sql/where'
p1335
sg12
g13
(g14
g15
NtRp1336
(dp1337
g18
I1
sg19
I0
sg20
I201
sg21
I0
sg22
I0
sg23
I78
sg24
I0
sbssg25
S'\xbaA\xd0\xa1\xcb&\xd5r\xf2R0\xb9\xe0\x9f\xbe\xe4'
p1338
ssS'_Users_graememaciver_Projects_GM07-KeyStore_venv_lib_python2_7_site-packages_django_core_files_utils'
p1339
(dp1340
g6
(dp1341
g8
S'_Users_graememaciver_Projects_GM07-KeyStore_venv_lib_python2_7_site-packages_django_core_files_utils.html'
p1342
sg10
S'/Users/graememaciver/Projects/GM07-KeyStore/venv/lib/python2.7/site-packages/django/core/files/utils'
p1343
sg12
g13
(g14
g15
NtRp1344
(dp1345
g18
I1
sg19
I0
sg20
I19
sg21
I0
sg22
I0
sg23
I1
sg24
I0
sbssg25
S'\x91@)\xe4(\x81\xd6\xb8\x9b\x16\xc4\xeeh\x11e\xff'
p1346
ssS'_Users_graememaciver_Projects_GM07-KeyStore_venv_lib_python2_7_site-packages_django_core_management_commands_loaddata'
p1347
(dp1348
g6
(dp1349
g8
S'_Users_graememaciver_Projects_GM07-KeyStore_venv_lib_python2_7_site-packages_django_core_management_commands_loaddata.html'
p1350
sg10
S'/Users/graememaciver/Projects/GM07-KeyStore/venv/lib/python2.7/site-packages/django/core/management/commands/loaddata'
p1351
sg12
g13
(g14
g15
NtRp1352
(dp1353
g18
I1
sg19
I0
sg20
I157
sg21
I0
sg22
I0
sg23
I68
sg24
I0
sbssg25
S't\xaa\xf1\xfd\x1d&0\x95\xe9\x81\x905b\xe5|\x94'
p1354
ssS'_Users_graememaciver_Projects_GM07-KeyStore_venv_lib_python2_7_site-packages_django_dispatch_dispatcher'
p1355
(dp1356
g6
(dp1357
g8
S'_Users_graememaciver_Projects_GM07-KeyStore_venv_lib_python2_7_site-packages_django_dispatch_dispatcher.html'
p1358
sg10
S'/Users/graememaciver/Projects/GM07-KeyStore/venv/lib/python2.7/site-packages/django/dispatch/dispatcher'
p1359
sg12
g13
(g14
g15
NtRp1360
(dp1361
g18
I1
sg19
I0
sg20
I101
sg21
I0
sg22
I0
sg23
I40
sg24
I0
sbssg25
S'5\x99\x0f2\xd8\xa7g\xa9\xd7\xfc\xbe\x1e\xb2\xcd\x96\xf2'
p1362
ssS'_Users_graememaciver_Projects_GM07-KeyStore_venv_lib_python2_7_site-packages_django_db_models_manager'
p1363
(dp1364
g6
(dp1365
g8
S'_Users_graememaciver_Projects_GM07-KeyStore_venv_lib_python2_7_site-packages_django_db_models_manager.html'
p1366
sg10
S'/Users/graememaciver/Projects/GM07-KeyStore/venv/lib/python2.7/site-packages/django/db/models/manager'
p1367
sg12
g13
(g14
g15
NtRp1368
(dp1369
g18
I1
sg19
I0
sg20
I157
sg21
I0
sg22
I0
sg23
I41
sg24
I0
sbssg25
S'\x82&\xd5\x82\x80\xb5\x93\xa6+w\xc7\x92<\xba\x01+'
p1370
ssS'_Users_graememaciver_Projects_GM07-KeyStore_venv_lib_python2_7_site-packages_django_db_models_sql_datastructures'
p1371
(dp1372
g6
(dp1373
g8
S'_Users_graememaciver_Projects_GM07-KeyStore_venv_lib_python2_7_site-packages_django_db_models_sql_datastructures.html'
p1374
sg10
S'/Users/graememaciver/Projects/GM07-KeyStore/venv/lib/python2.7/site-packages/django/db/models/sql/datastructures'
p1375
sg12
g13
(g14
g15
NtRp1376
(dp1377
g18
I1
sg19
I0
sg20
I23
sg21
I0
sg22
I0
sg23
I11
sg24
I0
sbssg25
S'\x07\xe3\x96|t;\xd3\xca\x8a\x1f]\x94d\xcc\r\xa8'
p1378
ssS'_Users_graememaciver_Projects_GM07-KeyStore_venv_lib_python2_7_site-packages_django_contrib_admin_widgets'
p1379
(dp1380
g6
(dp1381
g8
S'_Users_graememaciver_Projects_GM07-KeyStore_venv_lib_python2_7_site-packages_django_contrib_admin_widgets.html'
p1382
sg10
S'/Users/graememaciver/Projects/GM07-KeyStore/venv/lib/python2.7/site-packages/django/contrib/admin/widgets'
p1383
sg12
g13
(g14
g15
NtRp1384
(dp1385
g18
I1
sg19
I0
sg20
I223
sg21
I0
sg22
I0
sg23
I154
sg24
I0
sbssg25
S'\xff"\xe1\x07\x97\x85I\x92AD\xc6\x02l\'&m'
p1386
ssS'_Users_graememaciver_Projects_GM07-KeyStore_venv_lib_python2_7_site-packages_django_core_signing'
p1387
(dp1388
g6
(dp1389
g8
S'_Users_graememaciver_Projects_GM07-KeyStore_venv_lib_python2_7_site-packages_django_core_signing.html'
p1390
sg10
S'/Users/graememaciver/Projects/GM07-KeyStore/venv/lib/python2.7/site-packages/django/core/signing'
p1391
sg12
g13
(g14
g15
NtRp1392
(dp1393
g18
I1
sg19
I0
sg20
I96
sg21
I0
sg22
I0
sg23
I63
sg24
I0
sbssg25
S'\xd3GN\x9a\x06OH\x9a\xf4[\x8e\xc2C\xfb\x14,'
p1394
ssS'_Users_graememaciver_Projects_GM07-KeyStore_venv_lib_python2_7_site-packages_django_utils_formats'
p1395
(dp1396
g6
(dp1397
g8
S'_Users_graememaciver_Projects_GM07-KeyStore_venv_lib_python2_7_site-packages_django_utils_formats.html'
p1398
sg10
S'/Users/graememaciver/Projects/GM07-KeyStore/venv/lib/python2.7/site-packages/django/utils/formats'
p1399
sg12
g13
(g14
g15
NtRp1400
(dp1401
g18
I1
sg19
I0
sg20
I115
sg21
I0
sg22
I0
sg23
I54
sg24
I0
sbssg25
S'\xdd\x14\xa4\x03Z\xd8c\xf6Xq\xc9\xb9\xe6\xfb\xef\xf3'
p1402
ssS'_Users_graememaciver_Projects_GM07-KeyStore_venv_lib_python2_7_site-packages_dj_database_url'
p1403
(dp1404
g6
(dp1405
g8
S'_Users_graememaciver_Projects_GM07-KeyStore_venv_lib_python2_7_site-packages_dj_database_url.html'
p1406
sg10
S'/Users/graememaciver/Projects/GM07-KeyStore/venv/lib/python2.7/site-packages/dj_database_url'
p1407
sg12
g13
(g14
g15
NtRp1408
(dp1409
g18
I1
sg19
I0
sg20
I32
sg21
I0
sg22
I0
sg23
I4
sg24
I0
sbssg25
S'\xe9k\x89+D\xa8>\x8b\xa5HW\x93\x9c\x96\x0b\x88'
p1410
ssS'_Users_graememaciver_Projects_GM07-KeyStore_venv_lib_python2_7_site-packages_django_shortcuts___init__'
p1411
(dp1412
g6
(dp1413
g8
S'_Users_graememaciver_Projects_GM07-KeyStore_venv_lib_python2_7_site-packages_django_shortcuts___init__.html'
p1414
sg10
S'/Users/graememaciver/Projects/GM07-KeyStore/venv/lib/python2.7/site-packages/django/shortcuts/__init__'
p1415
sg12
g13
(g14
g15
NtRp1416
(dp1417
g18
I1
sg19
I0
sg20
I63
sg21
I0
sg22
I0
sg23
I48
sg24
I0
sbssg25
S"\xa2\xef\xfa\xdcE12'ad\x01\xe8\x12$\x8f\xb8"
p1418
ssS'_Users_graememaciver_Projects_GM07-KeyStore_venv_lib_python2_7_site-packages_south_migration_migrators'
p1419
(dp1420
g6
(dp1421
g8
S'_Users_graememaciver_Projects_GM07-KeyStore_venv_lib_python2_7_site-packages_south_migration_migrators.html'
p1422
sg10
S'/Users/graememaciver/Projects/GM07-KeyStore/venv/lib/python2.7/site-packages/south/migration/migrators'
p1423
sg12
g13
(g14
g15
NtRp1424
(dp1425
g18
I1
sg19
I0
sg20
I227
sg21
I0
sg22
I0
sg23
I76
sg24
I0
sbssg25
S',?\x821\xe6\xe7\x82\xd40\x81\x01\xaf\xc5\xf9\xea\x19'
p1426
ssS'_Users_graememaciver_Projects_GM07-KeyStore_keys_migrations_0002_auto__add_field_keypair_deleted'
p1427
(dp1428
g6
(dp1429
g8
S'_Users_graememaciver_Projects_GM07-KeyStore_keys_migrations_0002_auto__add_field_keypair_deleted.html'
p1430
sg10
S'/Users/graememaciver/Projects/GM07-KeyStore/keys/migrations/0002_auto__add_field_keypair_deleted'
p1431
sg12
g13
(g14
g15
NtRp1432
(dp1433
g18
I1
sg19
I0
sg20
I11
sg21
I0
sg22
I0
sg23
I1
sg24
I0
sbssg25
S'\xf4?\x05(;\xaf\xbc\xbc\xdf\xbbJ4\xf2\x1b<\xf3'
p1434
ssS'_Users_graememaciver_Projects_GM07-KeyStore_venv_lib_python2_7_site-packages_django_core_files_move'
p1435
(dp1436
g6
(dp1437
g8
S'_Users_graememaciver_Projects_GM07-KeyStore_venv_lib_python2_7_site-packages_django_core_files_move.html'
p1438
sg10
S'/Users/graememaciver/Projects/GM07-KeyStore/venv/lib/python2.7/site-packages/django/core/files/move'
p1439
sg12
g13
(g14
g15
NtRp1440
(dp1441
g18
I1
sg19
I0
sg20
I45
sg21
I0
sg22
I0
sg23
I38
sg24
I0
sbssg25
S'K)w2\x06y\x1c0\xe1\x95\xae\x19(\xb1\xa1\xa3'
p1442
ssS'_Users_graememaciver_Projects_GM07-KeyStore_venv_lib_python2_7_site-packages_django_contrib_contenttypes_models'
p1443
(dp1444
g6
(dp1445
g8
S'_Users_graememaciver_Projects_GM07-KeyStore_venv_lib_python2_7_site-packages_django_contrib_contenttypes_models.html'
p1446
sg10
S'/Users/graememaciver/Projects/GM07-KeyStore/venv/lib/python2.7/site-packages/django/contrib/contenttypes/models'
p1447
sg12
g13
(g14
g15
NtRp1448
(dp1449
g18
I1
sg19
I0
sg20
I98
sg21
I0
sg22
I0
sg23
I48
sg24
I0
sbssg25
S'\x03\x16\x93\xb8\x04M$\xc4D$\x9a\x14q\xf2I3'
p1450
ssS'_Users_graememaciver_Projects_GM07-KeyStore_venv_lib_python2_7_site-packages_django_conf_locale_en___init__'
p1451
(dp1452
g6
(dp1453
g8
S'_Users_graememaciver_Projects_GM07-KeyStore_venv_lib_python2_7_site-packages_django_conf_locale_en___init__.html'
p1454
sg10
S'/Users/graememaciver/Projects/GM07-KeyStore/venv/lib/python2.7/site-packages/django/conf/locale/en/__init__'
p1455
sg12
g13
(g14
g15
NtRp1456
(dp1457
g18
I1
sg19
I0
sg20
I0
sg21
I0
sg22
I0
sg23
I0
sg24
I0
sbssg25
S'\xb0\xc8pN\xaf>\xa0\xbaz\x144\xe0A9\xb8?'
p1458
ssS'_Users_graememaciver_Projects_GM07-KeyStore_venv_lib_python2_7_site-packages_django_utils_html'
p1459
(dp1460
g6
(dp1461
g8
S'_Users_graememaciver_Projects_GM07-KeyStore_venv_lib_python2_7_site-packages_django_utils_html.html'
p1462
sg10
S'/Users/graememaciver/Projects/GM07-KeyStore/venv/lib/python2.7/site-packages/django/utils/html'
p1463
sg12
g13
(g14
g15
NtRp1464
(dp1465
g18
I1
sg19
I0
sg20
I150
sg21
I0
sg22
I0
sg23
I98
sg24
I0
sbssg25
S'\xe4\x14\xbb\xdf]\x9ax\x93[\x04\x96\xf2\x91<\x08\xa3'
p1466
ssS'_Users_graememaciver_Projects_GM07-KeyStore_venv_lib_python2_7_site-packages_django_template_response'
p1467
(dp1468
g6
(dp1469
g8
S'_Users_graememaciver_Projects_GM07-KeyStore_venv_lib_python2_7_site-packages_django_template_response.html'
p1470
sg10
S'/Users/graememaciver/Projects/GM07-KeyStore/venv/lib/python2.7/site-packages/django/template/response'
p1471
sg12
g13
(g14
g15
NtRp1472
(dp1473
g18
I1
sg19
I0
sg20
I72
sg21
I0
sg22
I0
sg23
I50
sg24
I0
sbssg25
S'W\xe7\xef\x08`\xcco\xe3\x14GL\x9fl,\xde\xdc'
p1474
ssS'_Users_graememaciver_Projects_GM07-KeyStore_venv_lib_python2_7_site-packages_django_utils_synch'
p1475
(dp1476
g6
(dp1477
g8
S'_Users_graememaciver_Projects_GM07-KeyStore_venv_lib_python2_7_site-packages_django_utils_synch.html'
p1478
sg10
S'/Users/graememaciver/Projects/GM07-KeyStore/venv/lib/python2.7/site-packages/django/utils/synch'
p1479
sg12
g13
(g14
g15
NtRp1480
(dp1481
g18
I1
sg19
I0
sg20
I59
sg21
I0
sg22
I0
sg23
I41
sg24
I0
sbssg25
S'\xe4\xa3PBK-)\xfe}"\xa7\xb5\x01\x8cz\x8d'
p1482
ssS'_Users_graememaciver_Projects_GM07-KeyStore_venv_lib_python2_7_site-packages_django_utils_ipv6'
p1483
(dp1484
g6
(dp1485
g8
S'_Users_graememaciver_Projects_GM07-KeyStore_venv_lib_python2_7_site-packages_django_utils_ipv6.html'
p1486
sg10
S'/Users/graememaciver/Projects/GM07-KeyStore/venv/lib/python2.7/site-packages/django/utils/ipv6'
p1487
sg12
g13
(g14
g15
NtRp1488
(dp1489
g18
I1
sg19
I0
sg20
I108
sg21
I0
sg22
I0
sg23
I100
sg24
I0
sbssg25
S'\x19|P\xf8\x82\xf4q<E\xfd\r\xbc\xff\x08.S'
p1490
ssS'_Users_graememaciver_Projects_GM07-KeyStore_venv_lib_python2_7_site-packages_django_core_cache___init__'
p1491
(dp1492
g6
(dp1493
g8
S'_Users_graememaciver_Projects_GM07-KeyStore_venv_lib_python2_7_site-packages_django_core_cache___init__.html'
p1494
sg10
S'/Users/graememaciver/Projects/GM07-KeyStore/venv/lib/python2.7/site-packages/django/core/cache/__init__'
p1495
sg12
g13
(g14
g15
NtRp1496
(dp1497
g18
I1
sg19
I0
sg20
I65
sg21
I0
sg22
I0
sg23
I32
sg24
I0
sbssg25
S'\xcfU\xb7\x08J\x17s}\xb4\x9b\x888\xb0\xcf\xc3\x83'
p1498
ssS'_Users_graememaciver_Projects_GM07-KeyStore_venv_lib_python2_7_site-packages_django_contrib_sessions_management___init__'
p1499
(dp1500
g6
(dp1501
g8
S'_Users_graememaciver_Projects_GM07-KeyStore_venv_lib_python2_7_site-packages_django_contrib_sessions_management___init__.html'
p1502
sg10
S'/Users/graememaciver/Projects/GM07-KeyStore/venv/lib/python2.7/site-packages/django/contrib/sessions/management/__init__'
p1503
sg12
g13
(g14
g15
NtRp1504
(dp1505
g18
I1
sg19
I0
sg20
I0
sg21
I0
sg22
I0
sg23
I0
sg24
I0
sbssg25
S'\xb0\xc8pN\xaf>\xa0\xbaz\x144\xe0A9\xb8?'
p1506
ssS'_Users_graememaciver_Projects_GM07-KeyStore_venv_lib_python2_7_site-packages_django_utils_html_parser'
p1507
(dp1508
g6
(dp1509
g8
S'_Users_graememaciver_Projects_GM07-KeyStore_venv_lib_python2_7_site-packages_django_utils_html_parser.html'
p1510
sg10
S'/Users/graememaciver/Projects/GM07-KeyStore/venv/lib/python2.7/site-packages/django/utils/html_parser'
p1511
sg12
g13
(g14
g15
NtRp1512
(dp1513
g18
I1
sg19
I0
sg20
I82
sg21
I0
sg22
I0
sg23
I68
sg24
I0
sbssg25
S"\x9c\x88w)\x01'\xac\xf5\xec\xe0Nl\x91\xefW\xda"
p1514
ssS'_Users_graememaciver_Projects_GM07-KeyStore_venv_lib_python2_7_site-packages_openid___init__'
p1515
(dp1516
g6
(dp1517
g8
S'_Users_graememaciver_Projects_GM07-KeyStore_venv_lib_python2_7_site-packages_openid___init__.html'
p1518
sg10
S'/Users/graememaciver/Projects/GM07-KeyStore/venv/lib/python2.7/site-packages/openid/__init__'
p1519
sg12
g13
(g14
g15
NtRp1520
(dp1521
g18
I1
sg19
I0
sg20
I9
sg21
I0
sg22
I0
sg23
I3
sg24
I0
sbssg25
S'w\xf8%yc\xea\x9b\x89\xd4#=\x8c\xf1\x81\xa9\x92'
p1522
ssS'_Users_graememaciver_Projects_GM07-KeyStore_venv_lib_python2_7_site-packages_django_utils__os'
p1523
(dp1524
g6
(dp1525
g8
S'_Users_graememaciver_Projects_GM07-KeyStore_venv_lib_python2_7_site-packages_django_utils__os.html'
p1526
sg10
S'/Users/graememaciver/Projects/GM07-KeyStore/venv/lib/python2.7/site-packages/django/utils/_os'
p1527
sg12
g13
(g14
g15
NtRp1528
(dp1529
g18
I1
sg19
I0
sg20
I43
sg21
I0
sg22
I0
sg23
I22
sg24
I0
sbssg25
S'\x15#\xd1,`\xe9\xe4K\x96\xd6o\x8a\x85\x94\xa3\xcf'
p1530
ssS'_Users_graememaciver_Projects_GM07-KeyStore_venv_lib_python2_7_site-packages_south_db___init__'
p1531
(dp1532
g6
(dp1533
g8
S'_Users_graememaciver_Projects_GM07-KeyStore_venv_lib_python2_7_site-packages_south_db___init__.html'
p1534
sg10
S'/Users/graememaciver/Projects/GM07-KeyStore/venv/lib/python2.7/site-packages/south/db/__init__'
p1535
sg12
g13
(g14
g15
NtRp1536
(dp1537
g18
I1
sg19
I0
sg20
I24
sg21
I0
sg22
I0
sg23
I9
sg24
I0
sbssg25
S'\xc5\tw1\x8f\xa9W\xa4E\x14\x88\xd2^\xa7O\xc7'
p1538
ssS'_Users_graememaciver_Projects_GM07-KeyStore_venv_lib_python2_7_site-packages_django_core_servers_basehttp'
p1539
(dp1540
g6
(dp1541
g8
S'_Users_graememaciver_Projects_GM07-KeyStore_venv_lib_python2_7_site-packages_django_core_servers_basehttp.html'
p1542
sg10
S'/Users/graememaciver/Projects/GM07-KeyStore/venv/lib/python2.7/site-packages/django/core/servers/basehttp'
p1543
sg12
g13
(g14
g15
NtRp1544
(dp1545
g18
I1
sg19
I0
sg20
I111
sg21
I0
sg22
I0
sg23
I77
sg24
I0
sbssg25
S'\xc8\xefs\xe4\n@3\xd1\x17\x97\x9ae\xc3h\xee<'
p1546
ssS'_Users_graememaciver_Projects_GM07-KeyStore_venv_lib_python2_7_site-packages_django_template_loader_tags'
p1547
(dp1548
g6
(dp1549
g8
S'_Users_graememaciver_Projects_GM07-KeyStore_venv_lib_python2_7_site-packages_django_template_loader_tags.html'
p1550
sg10
S'/Users/graememaciver/Projects/GM07-KeyStore/venv/lib/python2.7/site-packages/django/template/loader_tags'
p1551
sg12
g13
(g14
g15
NtRp1552
(dp1553
g18
I1
sg19
I0
sg20
I178
sg21
I0
sg22
I0
sg23
I140
sg24
I0
sbssg25
S'\xc0\xc1V\x98\x98\xde\xa2\xe1\t\x9e\xe0o\xc7\x94\xd0\x0c'
p1554
ssS'_Users_graememaciver_Projects_GM07-KeyStore_venv_lib_python2_7_site-packages_django_dispatch_saferef'
p1555
(dp1556
g6
(dp1557
g8
S'_Users_graememaciver_Projects_GM07-KeyStore_venv_lib_python2_7_site-packages_django_dispatch_saferef.html'
p1558
sg10
S'/Users/graememaciver/Projects/GM07-KeyStore/venv/lib/python2.7/site-packages/django/dispatch/saferef'
p1559
sg12
g13
(g14
g15
NtRp1560
(dp1561
g18
I1
sg19
I0
sg20
I84
sg21
I0
sg22
I0
sg23
I61
sg24
I0
sbssg25
S'\x93\xb1\x97\xc2aa\x7fN\xc9GW \xb2\xcd \x9b'
p1562
ssS'_Users_graememaciver_Projects_GM07-KeyStore_venv_lib_python2_7_site-packages_django_contrib_staticfiles_models'
p1563
(dp1564
g6
(dp1565
g8
S'_Users_graememaciver_Projects_GM07-KeyStore_venv_lib_python2_7_site-packages_django_contrib_staticfiles_models.html'
p1566
sg10
S'/Users/graememaciver/Projects/GM07-KeyStore/venv/lib/python2.7/site-packages/django/contrib/staticfiles/models'
p1567
sg12
g13
(g14
g15
NtRp1568
(dp1569
g18
I1
sg19
I0
sg20
I0
sg21
I0
sg22
I0
sg23
I0
sg24
I0
sbssg25
S'\xb0\xc8pN\xaf>\xa0\xbaz\x144\xe0A9\xb8?'
p1570
ssS'_Users_graememaciver_Projects_GM07-KeyStore_venv_lib_python2_7_site-packages_django_db_models_fields_related'
p1571
(dp1572
g6
(dp1573
g8
S'_Users_graememaciver_Projects_GM07-KeyStore_venv_lib_python2_7_site-packages_django_db_models_fields_related.html'
p1574
sg10
S'/Users/graememaciver/Projects/GM07-KeyStore/venv/lib/python2.7/site-packages/django/db/models/fields/related'
p1575
sg12
g13
(g14
g15
NtRp1576
(dp1577
g18
I1
sg19
I0
sg20
I755
sg21
I0
sg22
I0
sg23
I451
sg24
I0
sbssg25
S'\xf6\x13\xd1\xa2\x99\xcb\xbbT\xbb\xd4z\xe0\x1c\xdaY\x9a'
p1578
ssS'_Users_graememaciver_Projects_GM07-KeyStore_venv_lib_python2_7_site-packages_django_core_cache_backends_locmem'
p1579
(dp1580
g6
(dp1581
g8
S'_Users_graememaciver_Projects_GM07-KeyStore_venv_lib_python2_7_site-packages_django_core_cache_backends_locmem.html'
p1582
sg10
S'/Users/graememaciver/Projects/GM07-KeyStore/venv/lib/python2.7/site-packages/django/core/cache/backends/locmem'
p1583
sg12
g13
(g14
g15
NtRp1584
(dp1585
g18
I1
sg19
I0
sg20
I119
sg21
I0
sg22
I0
sg23
I93
sg24
I0
sbssg25
S'\x9e5s\xf8EUb\xe7\xea$L25\x1c\xbc\xfc'
p1586
ssS'_Users_graememaciver_Projects_GM07-KeyStore_venv_lib_python2_7_site-packages_django_contrib_admin_templatetags_admin_static'
p1587
(dp1588
g6
(dp1589
g8
S'_Users_graememaciver_Projects_GM07-KeyStore_venv_lib_python2_7_site-packages_django_contrib_admin_templatetags_admin_static.html'
p1590
sg10
S'/Users/graememaciver/Projects/GM07-KeyStore/venv/lib/python2.7/site-packages/django/contrib/admin/templatetags/admin_static'
p1591
sg12
g13
(g14
g15
NtRp1592
(dp1593
g18
I1
sg19
I0
sg20
I7
sg21
I0
sg22
I0
sg23
I1
sg24
I0
sbssg25
S'\x99{\xd7\xbc\xa3W\x085\xed$9\xd94r\xea\x15'
p1594
ssS'_Users_graememaciver_Projects_GM07-KeyStore_venv_lib_python2_7_site-packages_south_utils___init__'
p1595
(dp1596
g6
(dp1597
g8
S'_Users_graememaciver_Projects_GM07-KeyStore_venv_lib_python2_7_site-packages_south_utils___init__.html'
p1598
sg10
S'/Users/graememaciver/Projects/GM07-KeyStore/venv/lib/python2.7/site-packages/south/utils/__init__'
p1599
sg12
g13
(g14
g15
NtRp1600
(dp1601
g18
I1
sg19
I0
sg20
I38
sg21
I0
sg22
I0
sg23
I7
sg24
I0
sbssg25
S'\x01/A\x8c\xba\xa7\xcd\xfba\xe9\xff\xc2>\x01\x9c\x10'
p1602
ssS'_Users_graememaciver_Projects_GM07-KeyStore_venv_lib_python2_7_site-packages_django_core_files_images'
p1603
(dp1604
g6
(dp1605
g8
S'_Users_graememaciver_Projects_GM07-KeyStore_venv_lib_python2_7_site-packages_django_core_files_images.html'
p1606
sg10
S'/Users/graememaciver/Projects/GM07-KeyStore/venv/lib/python2.7/site-packages/django/core/files/images'
p1607
sg12
g13
(g14
g15
NtRp1608
(dp1609
g18
I1
sg19
I0
sg20
I40
sg21
I0
sg22
I0
sg23
I32
sg24
I0
sbssg25
S'\xcf\x19\xca\xed\xd0\x9f\xdd\x00\xc0\xb9\xceq\xff\xa6JJ'
p1610
ssS'_Users_graememaciver_Projects_GM07-KeyStore_venv_lib_python2_7_site-packages_django_db_models_options'
p1611
(dp1612
g6
(dp1613
g8
S'_Users_graememaciver_Projects_GM07-KeyStore_venv_lib_python2_7_site-packages_django_db_models_options.html'
p1614
sg10
S'/Users/graememaciver/Projects/GM07-KeyStore/venv/lib/python2.7/site-packages/django/db/models/options'
p1615
sg12
g13
(g14
g15
NtRp1616
(dp1617
g18
I1
sg19
I0
sg20
I338
sg21
I0
sg22
I0
sg23
I79
sg24
I0
sbssg25
S'P\x9a?\xad\xbb\x85f\xc4a\xab\xce#\xa84\xfd\xab'
p1618
ssS'_Users_graememaciver_Projects_GM07-KeyStore_venv_lib_python2_7_site-packages_django_utils_translation___init__'
p1619
(dp1620
g6
(dp1621
g8
S'_Users_graememaciver_Projects_GM07-KeyStore_venv_lib_python2_7_site-packages_django_utils_translation___init__.html'
p1622
sg10
S'/Users/graememaciver/Projects/GM07-KeyStore/venv/lib/python2.7/site-packages/django/utils/translation/__init__'
p1623
sg12
g13
(g14
g15
NtRp1624
(dp1625
g18
I1
sg19
I0
sg20
I78
sg21
I0
sg22
I0
sg23
I25
sg24
I0
sbssg25
S'\xd0\xf5\x84\x0f\nv\xc3\xe0\x02\xe5\x1e\x8cUE\nn'
p1626
ssS'_Users_graememaciver_Projects_GM07-KeyStore_venv_lib_python2_7_site-packages_django_contrib_contenttypes_management'
p1627
(dp1628
g6
(dp1629
g8
S'_Users_graememaciver_Projects_GM07-KeyStore_venv_lib_python2_7_site-packages_django_contrib_contenttypes_management.html'
p1630
sg10
S'/Users/graememaciver/Projects/GM07-KeyStore/venv/lib/python2.7/site-packages/django/contrib/contenttypes/management'
p1631
sg12
g13
(g14
g15
NtRp1632
(dp1633
g18
I1
sg19
I0
sg20
I40
sg21
I0
sg22
I0
sg23
I17
sg24
I0
sbssg25
S'\xe071\x8b\x81A=\xee\xc7+(G\xaa\x12\xb3('
p1634
ssS'_Users_graememaciver_Projects_GM07-KeyStore_venv_lib_python2_7_site-packages_django_contrib_messages___init__'
p1635
(dp1636
g6
(dp1637
g8
S'_Users_graememaciver_Projects_GM07-KeyStore_venv_lib_python2_7_site-packages_django_contrib_messages___init__.html'
p1638
sg10
S'/Users/graememaciver/Projects/GM07-KeyStore/venv/lib/python2.7/site-packages/django/contrib/messages/__init__'
p1639
sg12
g13
(g14
g15
NtRp1640
(dp1641
g18
I1
sg19
I0
sg20
I3
sg21
I0
sg22
I0
sg23
I0
sg24
I0
sbssg25
S'\x01~\xb7\xc9ZD\xe5N\xc3\x01\xc2\x94u\x0b`\x9e'
p1642
ssS'_Users_graememaciver_Projects_GM07-KeyStore_venv_lib_python2_7_site-packages_django_http___init__'
p1643
(dp1644
g6
(dp1645
g8
S'_Users_graememaciver_Projects_GM07-KeyStore_venv_lib_python2_7_site-packages_django_http___init__.html'
p1646
sg10
S'/Users/graememaciver/Projects/GM07-KeyStore/venv/lib/python2.7/site-packages/django/http/__init__'
p1647
sg12
g13
(g14
g15
NtRp1648
(dp1649
g18
I1
sg19
I0
sg20
I4
sg21
I0
sg22
I0
sg23
I0
sg24
I0
sbssg25
S'9D\xc4$2\xe1*J\xb6\xd3\x1b\xbe-\x93\x1c%'
p1650
ssS'_Users_graememaciver_Projects_GM07-KeyStore_venv_lib_python2_7_site-packages_django_core_serializers_json'
p1651
(dp1652
g6
(dp1653
g8
S'_Users_graememaciver_Projects_GM07-KeyStore_venv_lib_python2_7_site-packages_django_core_serializers_json.html'
p1654
sg10
S'/Users/graememaciver/Projects/GM07-KeyStore/venv/lib/python2.7/site-packages/django/core/serializers/json'
p1655
sg12
g13
(g14
g15
NtRp1656
(dp1657
g18
I1
sg19
I0
sg20
I72
sg21
I0
sg22
I0
sg23
I53
sg24
I0
sbssg25
S'\xad)W\xfe\x175\xcb\x97\x8c\xca\x7fW\xde.3\x9d'
p1658
ssS'_Users_graememaciver_Projects_GM07-KeyStore_venv_lib_python2_7_site-packages_django_core_files_base'
p1659
(dp1660
g6
(dp1661
g8
S'_Users_graememaciver_Projects_GM07-KeyStore_venv_lib_python2_7_site-packages_django_core_files_base.html'
p1662
sg10
S'/Users/graememaciver/Projects/GM07-KeyStore/venv/lib/python2.7/site-packages/django/core/files/base'
p1663
sg12
g13
(g14
g15
NtRp1664
(dp1665
g18
I1
sg19
I0
sg20
I106
sg21
I0
sg22
I0
sg23
I70
sg24
I0
sbssg25
S'4\xa9\x80\x03\xbc\x98\xe4u\\@\xe5\x9de\xb8lr'
p1666
ssS'_Users_graememaciver_Projects_GM07-KeyStore_venv_lib_python2_7_site-packages_social_auth_migrations_0002_auto__add_unique_nonce_timestamp_salt_server_url__add_unique_associati'
p1667
(dp1668
g6
(dp1669
g8
S'_Users_graememaciver_Projects_GM07-KeyStore_venv_lib_python2_7_site-packages_social_auth_migrations_0002_auto__add_unique_nonce_timestamp_salt_server_url__add_unique_associati.html'
p1670
sg10
S'/Users/graememaciver/Projects/GM07-KeyStore/venv/lib/python2.7/site-packages/social_auth/migrations/0002_auto__add_unique_nonce_timestamp_salt_server_url__add_unique_associati'
p1671
sg12
g13
(g14
g15
NtRp1672
(dp1673
g18
I1
sg19
I0
sg20
I25
sg21
I0
sg22
I0
sg23
I4
sg24
I0
sbssg25
S't\xe8A\xba0\xb2\xe7MRA\xc8;A9\x08v'
p1674
ssS'_Users_graememaciver_Projects_GM07-KeyStore_venv_lib_python2_7_site-packages_django_templatetags_static'
p1675
(dp1676
g6
(dp1677
g8
S'_Users_graememaciver_Projects_GM07-KeyStore_venv_lib_python2_7_site-packages_django_templatetags_static.html'
p1678
sg10
S'/Users/graememaciver/Projects/GM07-KeyStore/venv/lib/python2.7/site-packages/django/templatetags/static'
p1679
sg12
g13
(g14
g15
NtRp1680
(dp1681
g18
I1
sg19
I0
sg20
I71
sg21
I0
sg22
I0
sg23
I47
sg24
I0
sbssg25
S'r\x06\x8e\xa1-$\x94\xb9p\xb1\x08,{\xaa\x10\xfa'
p1682
ssS'_Users_graememaciver_Projects_GM07-KeyStore_venv_lib_python2_7_site-packages_django_contrib_sessions_backends___init__'
p1683
(dp1684
g6
(dp1685
g8
S'_Users_graememaciver_Projects_GM07-KeyStore_venv_lib_python2_7_site-packages_django_contrib_sessions_backends___init__.html'
p1686
sg10
S'/Users/graememaciver/Projects/GM07-KeyStore/venv/lib/python2.7/site-packages/django/contrib/sessions/backends/__init__'
p1687
sg12
g13
(g14
g15
NtRp1688
(dp1689
g18
I1
sg19
I0
sg20
I0
sg21
I0
sg22
I0
sg23
I0
sg24
I0
sbssg25
S'\xb0\xc8pN\xaf>\xa0\xbaz\x144\xe0A9\xb8?'
p1690
ssS'_Users_graememaciver_Projects_GM07-KeyStore_venv_lib_python2_7_site-packages_django_db_models_sql_compiler'
p1691
(dp1692
g6
(dp1693
g8
S'_Users_graememaciver_Projects_GM07-KeyStore_venv_lib_python2_7_site-packages_django_db_models_sql_compiler.html'
p1694
sg10
S'/Users/graememaciver/Projects/GM07-KeyStore/venv/lib/python2.7/site-packages/django/db/models/sql/compiler'
p1695
sg12
g13
(g14
g15
NtRp1696
(dp1697
g18
I1
sg19
I0
sg20
I659
sg21
I0
sg22
I0
sg23
I380
sg24
I0
sbssg25
S'\x14\x8b\xceY\xee\xbc\xb4\x87\xc7P\x11\x05\xa7k\\"'
p1698
ssS'_Users_graememaciver_Projects_GM07-KeyStore_venv_lib_python2_7_site-packages_django_core_files___init__'
p1699
(dp1700
g6
(dp1701
g8
S'_Users_graememaciver_Projects_GM07-KeyStore_venv_lib_python2_7_site-packages_django_core_files___init__.html'
p1702
sg10
S'/Users/graememaciver/Projects/GM07-KeyStore/venv/lib/python2.7/site-packages/django/core/files/__init__'
p1703
sg12
g13
(g14
g15
NtRp1704
(dp1705
g18
I1
sg19
I0
sg20
I1
sg21
I0
sg22
I0
sg23
I0
sg24
I0
sbssg25
S"\xa1\xbfiA'\x85B\x1e\xd8\xe0\x91\xe3\xf7\x86\x81\xb2"
p1706
ssS'_Users_graememaciver_Projects_GM07-KeyStore_venv_lib_python2_7_site-packages_django_contrib_staticfiles_templatetags___init__'
p1707
(dp1708
g6
(dp1709
g8
S'_Users_graememaciver_Projects_GM07-KeyStore_venv_lib_python2_7_site-packages_django_contrib_staticfiles_templatetags___init__.html'
p1710
sg10
S'/Users/graememaciver/Projects/GM07-KeyStore/venv/lib/python2.7/site-packages/django/contrib/staticfiles/templatetags/__init__'
p1711
sg12
g13
(g14
g15
NtRp1712
(dp1713
g18
I1
sg19
I0
sg20
I0
sg21
I0
sg22
I0
sg23
I0
sg24
I0
sbssg25
S'\xb0\xc8pN\xaf>\xa0\xbaz\x144\xe0A9\xb8?'
p1714
ssS'_Users_graememaciver_Projects_GM07-KeyStore_venv_lib_python2_7_site-packages_django_utils_dateparse'
p1715
(dp1716
g6
(dp1717
g8
S'_Users_graememaciver_Projects_GM07-KeyStore_venv_lib_python2_7_site-packages_django_utils_dateparse.html'
p1718
sg10
S'/Users/graememaciver/Projects/GM07-KeyStore/venv/lib/python2.7/site-packages/django/utils/dateparse'
p1719
sg12
g13
(g14
g15
NtRp1720
(dp1721
g18
I1
sg19
I0
sg20
I38
sg21
I0
sg22
I0
sg23
I16
sg24
I0
sbssg25
S'Cv\xa5E\xa6\xca[\x17A\xe2HY\x11k\x02\x84'
p1722
ssS'_Users_graememaciver_Projects_GM07-KeyStore_venv_lib_python2_7_site-packages_django_views_decorators_csrf'
p1723
(dp1724
g6
(dp1725
g8
S'_Users_graememaciver_Projects_GM07-KeyStore_venv_lib_python2_7_site-packages_django_views_decorators_csrf.html'
p1726
sg10
S'/Users/graememaciver/Projects/GM07-KeyStore/venv/lib/python2.7/site-packages/django/views/decorators/csrf'
p1727
sg12
g13
(g14
g15
NtRp1728
(dp1729
g18
I1
sg19
I0
sg20
I34
sg21
I0
sg22
I0
sg23
I13
sg24
I0
sbssg25
S'>\xb8\xe8V\xd1\x05\x90k\x11S\x11\xbd\xb0\xf0\xcf\xbf'
p1730
ssS'_Users_graememaciver_Projects_GM07-KeyStore_venv_lib_python2_7_site-packages_django_db_models_deletion'
p1731
(dp1732
g6
(dp1733
g8
S'_Users_graememaciver_Projects_GM07-KeyStore_venv_lib_python2_7_site-packages_django_db_models_deletion.html'
p1734
sg10
S'/Users/graememaciver/Projects/GM07-KeyStore/venv/lib/python2.7/site-packages/django/db/models/deletion'
p1735
sg12
g13
(g14
g15
NtRp1736
(dp1737
g18
I1
sg19
I0
sg20
I173
sg21
I0
sg22
I0
sg23
I142
sg24
I0
sbssg25
S'\x91\x11\xc1<"\xc6\xadr@\x82\xd9\x9eU\xd1%\xba'
p1738
ssS'_Users_graememaciver_Projects_GM07-KeyStore_venv_lib_python2_7_site-packages_django_utils_datastructures'
p1739
(dp1740
g6
(dp1741
g8
S'_Users_graememaciver_Projects_GM07-KeyStore_venv_lib_python2_7_site-packages_django_utils_datastructures.html'
p1742
sg10
S'/Users/graememaciver/Projects/GM07-KeyStore/venv/lib/python2.7/site-packages/django/utils/datastructures'
p1743
sg12
g13
(g14
g15
NtRp1744
(dp1745
g18
I1
sg19
I0
sg20
I303
sg21
I0
sg22
I0
sg23
I162
sg24
I0
sbssg25
S'c\xdb\x147!\xf1\x1e&\x81A\xd7e\xd3$b='
p1746
ssS'_Users_graememaciver_Projects_GM07-KeyStore_venv_lib_python2_7_site-packages_discover_runner_settings'
p1747
(dp1748
g6
(dp1749
g8
S'_Users_graememaciver_Projects_GM07-KeyStore_venv_lib_python2_7_site-packages_discover_runner_settings.html'
p1750
sg10
S'/Users/graememaciver/Projects/GM07-KeyStore/venv/lib/python2.7/site-packages/discover_runner/settings'
p1751
sg12
g13
(g14
g15
NtRp1752
(dp1753
g18
I1
sg19
I0
sg20
I3
sg21
I0
sg22
I0
sg23
I0
sg24
I0
sbssg25
S'S\xdc\x10\xc5\x90iz\xf6\x1f\x8d\x13\xcf3:WB'
p1754
ssS'_Users_graememaciver_Projects_GM07-KeyStore_venv_lib_python2_7_site-packages_south_introspection_plugins_django_taggit'
p1755
(dp1756
g6
(dp1757
g8
S'_Users_graememaciver_Projects_GM07-KeyStore_venv_lib_python2_7_site-packages_south_introspection_plugins_django_taggit.html'
p1758
sg10
S'/Users/graememaciver/Projects/GM07-KeyStore/venv/lib/python2.7/site-packages/south/introspection_plugins/django_taggit'
p1759
sg12
g13
(g14
g15
NtRp1760
(dp1761
g18
I1
sg19
I0
sg20
I8
sg21
I0
sg22
I0
sg23
I5
sg24
I0
sbssg25
S'\xbd`@\xbbz\xa5\xc3\xc5\x8dq0vb\xee\xba\x85'
p1762
ssS'_Users_graememaciver_Projects_GM07-KeyStore_venv_lib_python2_7_site-packages_django_http_request'
p1763
(dp1764
g6
(dp1765
g8
S'_Users_graememaciver_Projects_GM07-KeyStore_venv_lib_python2_7_site-packages_django_http_request.html'
p1766
sg10
S'/Users/graememaciver/Projects/GM07-KeyStore/venv/lib/python2.7/site-packages/django/http/request'
p1767
sg12
g13
(g14
g15
NtRp1768
(dp1769
g18
I1
sg19
I0
sg20
I280
sg21
I0
sg22
I0
sg23
I204
sg24
I0
sbssg25
S'\xdf\x85\xd5)"\xaf\n\xb6|=:\xc9\x9cT\xd3\xef'
p1770
ssS'_Users_graememaciver_Projects_GM07-KeyStore_venv_lib_python2_7_site-packages_south_management_commands_migrate'
p1771
(dp1772
g6
(dp1773
g8
S'_Users_graememaciver_Projects_GM07-KeyStore_venv_lib_python2_7_site-packages_south_management_commands_migrate.html'
p1774
sg10
S'/Users/graememaciver/Projects/GM07-KeyStore/venv/lib/python2.7/site-packages/south/management/commands/migrate'
p1775
sg12
g13
(g14
g15
NtRp1776
(dp1777
g18
I1
sg19
I0
sg20
I126
sg21
I0
sg22
I0
sg23
I90
sg24
I0
sbssg25
S'\x8d\xee\xb1;\x1bG\x91\xcd\x1a\xdd\xbc\xdd}]\x90e'
p1778
ssS'_Users_graememaciver_Projects_GM07-KeyStore_venv_lib_python2_7_site-packages_django_db___init__'
p1779
(dp1780
g6
(dp1781
g8
S'_Users_graememaciver_Projects_GM07-KeyStore_venv_lib_python2_7_site-packages_django_db___init__.html'
p1782
sg10
S'/Users/graememaciver/Projects/GM07-KeyStore/venv/lib/python2.7/site-packages/django/db/__init__'
p1783
sg12
g13
(g14
g15
NtRp1784
(dp1785
g18
I1
sg19
I0
sg20
I34
sg21
I0
sg22
I0
sg23
I14
sg24
I0
sbssg25
S'%\x16\xef\xa0\xab\x87\xe7\x9c[\x0f\x90\x13\xd0\x89X|'
p1786
ssS'_Users_graememaciver_Projects_GM07-KeyStore_venv_lib_python2_7_site-packages_django_core_management_commands_syncdb'
p1787
(dp1788
g6
(dp1789
g8
S'_Users_graememaciver_Projects_GM07-KeyStore_venv_lib_python2_7_site-packages_django_core_management_commands_syncdb.html'
p1790
sg10
S'/Users/graememaciver/Projects/GM07-KeyStore/venv/lib/python2.7/site-packages/django/core/management/commands/syncdb'
p1791
sg12
g13
(g14
g15
NtRp1792
(dp1793
g18
I1
sg19
I0
sg20
I99
sg21
I0
sg22
I0
sg23
I24
sg24
I0
sbssg25
S'\xad\xfc[\x81\x91G(j\xc6GKl\xb5D\xec4'
p1794
ssS'_Users_graememaciver_Projects_GM07-KeyStore_venv_lib_python2_7_site-packages_social_auth_db_django_models'
p1795
(dp1796
g6
(dp1797
g8
S'_Users_graememaciver_Projects_GM07-KeyStore_venv_lib_python2_7_site-packages_social_auth_db_django_models.html'
p1798
sg10
S'/Users/graememaciver/Projects/GM07-KeyStore/venv/lib/python2.7/site-packages/social_auth/db/django_models'
p1799
sg12
g13
(g14
g15
NtRp1800
(dp1801
g18
I1
sg19
I0
sg20
I52
sg21
I0
sg22
I0
sg23
I11
sg24
I0
sbssg25
S'Fo\x13\xce\x0e\xc6:\x1e*\x8c#\xa7\x8e{\x15\x18'
p1802
ssS'_Users_graememaciver_Projects_GM07-KeyStore_venv_lib_python2_7_site-packages_django_utils_dates'
p1803
(dp1804
g6
(dp1805
g8
S'_Users_graememaciver_Projects_GM07-KeyStore_venv_lib_python2_7_site-packages_django_utils_dates.html'
p1806
sg10
S'/Users/graememaciver/Projects/GM07-KeyStore/venv/lib/python2.7/site-packages/django/utils/dates'
p1807
sg12
g13
(g14
g15
NtRp1808
(dp1809
g18
I1
sg19
I0
sg20
I9
sg21
I0
sg22
I0
sg23
I0
sg24
I0
sbssg25
S'\xed\xe1n\x81\x12\xc1\xc6\x8b\xd8\x98O4:mTA'
p1810
ssS'_Users_graememaciver_Projects_GM07-KeyStore_venv_lib_python2_7_site-packages_django_db_models_fields___init__'
p1811
(dp1812
g6
(dp1813
g8
S'_Users_graememaciver_Projects_GM07-KeyStore_venv_lib_python2_7_site-packages_django_db_models_fields___init__.html'
p1814
sg10
S'/Users/graememaciver/Projects/GM07-KeyStore/venv/lib/python2.7/site-packages/django/db/models/fields/__init__'
p1815
sg12
g13
(g14
g15
NtRp1816
(dp1817
g18
I1
sg19
I0
sg20
I794
sg21
I0
sg22
I0
sg23
I377
sg24
I0
sbssg25
S'\xd0\xb1\xe5\xb5\xfew)\xc2\xbd\xa4\x08c\x15\x9d\xfc\xac'
p1818
ssS'_Users_graememaciver_Projects_GM07-KeyStore_venv_lib_python2_7_site-packages_django_test_html'
p1819
(dp1820
g6
(dp1821
g8
S'_Users_graememaciver_Projects_GM07-KeyStore_venv_lib_python2_7_site-packages_django_test_html.html'
p1822
sg10
S'/Users/graememaciver/Projects/GM07-KeyStore/venv/lib/python2.7/site-packages/django/test/html'
p1823
sg12
g13
(g14
g15
NtRp1824
(dp1825
g18
I1
sg19
I0
sg20
I167
sg21
I0
sg22
I0
sg23
I128
sg24
I0
sbssg25
S'\xb3\x03\x1f\xb6\xaf\xaf\xe2p\xe6\x89\x19\x83\xe6{\xa4^'
p1826
ssS'_Users_graememaciver_Projects_GM07-KeyStore_venv_lib_python2_7_site-packages_django_contrib_auth_forms'
p1827
(dp1828
g6
(dp1829
g8
S'_Users_graememaciver_Projects_GM07-KeyStore_venv_lib_python2_7_site-packages_django_contrib_auth_forms.html'
p1830
sg10
S'/Users/graememaciver/Projects/GM07-KeyStore/venv/lib/python2.7/site-packages/django/contrib/auth/forms'
p1831
sg12
g13
(g14
g15
NtRp1832
(dp1833
g18
I1
sg19
I0
sg20
I181
sg21
I0
sg22
I0
sg23
I105
sg24
I0
sbssg25
S'\xa8\xeb\xb2h3\xa9A\x00\xb1 \xfec\xe2\x82<\xc4'
p1834
ssS'_Users_graememaciver_Projects_GM07-KeyStore_venv_lib_python2_7_site-packages_django_utils_tree'
p1835
(dp1836
g6
(dp1837
g8
S'_Users_graememaciver_Projects_GM07-KeyStore_venv_lib_python2_7_site-packages_django_utils_tree.html'
p1838
sg10
S'/Users/graememaciver/Projects/GM07-KeyStore/venv/lib/python2.7/site-packages/django/utils/tree'
p1839
sg12
g13
(g14
g15
NtRp1840
(dp1841
g18
I1
sg19
I0
sg20
I64
sg21
I0
sg22
I0
sg23
I18
sg24
I0
sbssg25
S'\x1b\x86X\x113H\x1c\x1f\x1e\xeb:\xa9\xc6\xe9\x10\xb6'
p1842
ssS'_Users_graememaciver_Projects_GM07-KeyStore_venv_lib_python2_7_site-packages_django_template_loaders_app_directories'
p1843
(dp1844
g6
(dp1845
g8
S'_Users_graememaciver_Projects_GM07-KeyStore_venv_lib_python2_7_site-packages_django_template_loaders_app_directories.html'
p1846
sg10
S'/Users/graememaciver/Projects/GM07-KeyStore/venv/lib/python2.7/site-packages/django/template/loaders/app_directories'
p1847
sg12
g13
(g14
g15
NtRp1848
(dp1849
g18
I1
sg19
I0
sg20
I43
sg21
I0
sg22
I0
sg23
I18
sg24
I0
sbssg25
S'K\x0fGn\x19\xcb\xad\xcat\xdc"\x9c\x04\x1f~\x8f'
p1850
ssS'_Users_graememaciver_Projects_GM07-KeyStore_venv_lib_python2_7_site-packages_django_core_management_commands___init__'
p1851
(dp1852
g6
(dp1853
g8
S'_Users_graememaciver_Projects_GM07-KeyStore_venv_lib_python2_7_site-packages_django_core_management_commands___init__.html'
p1854
sg10
S'/Users/graememaciver/Projects/GM07-KeyStore/venv/lib/python2.7/site-packages/django/core/management/commands/__init__'
p1855
sg12
g13
(g14
g15
NtRp1856
(dp1857
g18
I1
sg19
I0
sg20
I0
sg21
I0
sg22
I0
sg23
I0
sg24
I0
sbssg25
S'\xb0\xc8pN\xaf>\xa0\xbaz\x144\xe0A9\xb8?'
p1858
ssS'_Users_graememaciver_Projects_GM07-KeyStore_venv_lib_python2_7_site-packages_django_core_handlers_base'
p1859
(dp1860
g6
(dp1861
g8
S'_Users_graememaciver_Projects_GM07-KeyStore_venv_lib_python2_7_site-packages_django_core_handlers_base.html'
p1862
sg10
S'/Users/graememaciver/Projects/GM07-KeyStore/venv/lib/python2.7/site-packages/django/core/handlers/base'
p1863
sg12
g13
(g14
g15
NtRp1864
(dp1865
g18
I1
sg19
I0
sg20
I155
sg21
I0
sg22
I0
sg23
I132
sg24
I0
sbssg25
S'\x95\xd8\xe6\xfa\x7f\xf2l\x12G\xce\x97\xf5\x0b\xa5y2'
p1866
ssS'_Users_graememaciver_Projects_GM07-KeyStore_venv_lib_python2_7_site-packages_django_contrib_auth_hashers'
p1867
(dp1868
g6
(dp1869
g8
S'_Users_graememaciver_Projects_GM07-KeyStore_venv_lib_python2_7_site-packages_django_contrib_auth_hashers.html'
p1870
sg10
S'/Users/graememaciver/Projects/GM07-KeyStore/venv/lib/python2.7/site-packages/django/contrib/auth/hashers'
p1871
sg12
g13
(g14
g15
NtRp1872
(dp1873
g18
I1
sg19
I0
sg20
I242
sg21
I0
sg22
I0
sg23
I156
sg24
I0
sbssg25
S'(\x98\xdc/\xac`\xe6\x98\xd0\xf4_Ut\x05\xccH'
p1874
ssS'_Users_graememaciver_Projects_GM07-KeyStore_venv_lib_python2_7_site-packages_django_contrib_messages_constants'
p1875
(dp1876
g6
(dp1877
g8
S'_Users_graememaciver_Projects_GM07-KeyStore_venv_lib_python2_7_site-packages_django_contrib_messages_constants.html'
p1878
sg10
S'/Users/graememaciver/Projects/GM07-KeyStore/venv/lib/python2.7/site-packages/django/contrib/messages/constants'
p1879
sg12
g13
(g14
g15
NtRp1880
(dp1881
g18
I1
sg19
I0
sg20
I6
sg21
I0
sg22
I0
sg23
I0
sg24
I0
sbssg25
S'\xe2n\xbf/\x11\x9a\xf2\xc6\xa4\x8f~\xd2\x91y\xd4\xda'
p1882
ssS'_Users_graememaciver_Projects_GM07-KeyStore_venv_lib_python2_7_site-packages_django_contrib_admin_templatetags___init__'
p1883
(dp1884
g6
(dp1885
g8
S'_Users_graememaciver_Projects_GM07-KeyStore_venv_lib_python2_7_site-packages_django_contrib_admin_templatetags___init__.html'
p1886
sg10
S'/Users/graememaciver/Projects/GM07-KeyStore/venv/lib/python2.7/site-packages/django/contrib/admin/templatetags/__init__'
p1887
sg12
g13
(g14
g15
NtRp1888
(dp1889
g18
I1
sg19
I0
sg20
I0
sg21
I0
sg22
I0
sg23
I0
sg24
I0
sbssg25
S'\xb0\xc8pN\xaf>\xa0\xbaz\x144\xe0A9\xb8?'
p1890
ssS'_Users_graememaciver_Projects_GM07-KeyStore_venv_lib_python2_7_site-packages_django_contrib_messages_storage___init__'
p1891
(dp1892
g6
(dp1893
g8
S'_Users_graememaciver_Projects_GM07-KeyStore_venv_lib_python2_7_site-packages_django_contrib_messages_storage___init__.html'
p1894
sg10
S'/Users/graememaciver/Projects/GM07-KeyStore/venv/lib/python2.7/site-packages/django/contrib/messages/storage/__init__'
p1895
sg12
g13
(g14
g15
NtRp1896
(dp1897
g18
I1
sg19
I0
sg20
I18
sg21
I0
sg22
I0
sg23
I13
sg24
I0
sbssg25
S'\x86?\xfd<[\xbe\xa2`A&l%:\xf2[\x82'
p1898
ssS'_Users_graememaciver_Projects_GM07-KeyStore_venv_lib_python2_7_site-packages_django_forms_util'
p1899
(dp1900
g6
(dp1901
g8
S'_Users_graememaciver_Projects_GM07-KeyStore_venv_lib_python2_7_site-packages_django_forms_util.html'
p1902
sg10
S'/Users/graememaciver/Projects/GM07-KeyStore/venv/lib/python2.7/site-packages/django/forms/util'
p1903
sg12
g13
(g14
g15
NtRp1904
(dp1905
g18
I1
sg19
I0
sg20
I44
sg21
I0
sg22
I0
sg23
I22
sg24
I0
sbssg25
S'\xb0\xfei\xd9\x80[lQ\xc7\xf5\x88\xf8\x9eDf\xd2'
p1906
ssS'_Users_graememaciver_Projects_GM07-KeyStore_venv_lib_python2_7_site-packages_django_contrib_admin_helpers'
p1907
(dp1908
g6
(dp1909
g8
S'_Users_graememaciver_Projects_GM07-KeyStore_venv_lib_python2_7_site-packages_django_contrib_admin_helpers.html'
p1910
sg10
S'/Users/graememaciver/Projects/GM07-KeyStore/venv/lib/python2.7/site-packages/django/contrib/admin/helpers'
p1911
sg12
g13
(g14
g15
NtRp1912
(dp1913
g18
I1
sg19
I0
sg20
I244
sg21
I0
sg22
I0
sg23
I179
sg24
I0
sbssg25
S'\x8b\xae\x9e\xae\x0b\x87\x93M]\x07\x8a\x9cx0\x18\xd2'
p1914
ssS'_Users_graememaciver_Projects_GM07-KeyStore_venv_lib_python2_7_site-packages_django_db_models_sql___init__'
p1915
(dp1916
g6
(dp1917
g8
S'_Users_graememaciver_Projects_GM07-KeyStore_venv_lib_python2_7_site-packages_django_db_models_sql___init__.html'
p1918
sg10
S'/Users/graememaciver/Projects/GM07-KeyStore/venv/lib/python2.7/site-packages/django/db/models/sql/__init__'
p1919
sg12
g13
(g14
g15
NtRp1920
(dp1921
g18
I1
sg19
I0
sg20
I6
sg21
I0
sg22
I0
sg23
I0
sg24
I0
sbssg25
S'\xea\xf8\xff\x94\xe8\x06\xd7@N\x8e\xb9\x9b)&=f'
p1922
ssS'_Users_graememaciver_Projects_GM07-KeyStore_venv_lib_python2_7_site-packages_django_utils_safestring'
p1923
(dp1924
g6
(dp1925
g8
S'_Users_graememaciver_Projects_GM07-KeyStore_venv_lib_python2_7_site-packages_django_utils_safestring.html'
p1926
sg10
S'/Users/graememaciver/Projects/GM07-KeyStore/venv/lib/python2.7/site-packages/django/utils/safestring'
p1927
sg12
g13
(g14
g15
NtRp1928
(dp1929
g18
I1
sg19
I0
sg20
I62
sg21
I0
sg22
I0
sg23
I33
sg24
I0
sbssg25
S'\x05\xb2n\x03\xfe\x94o\xa8\x0b#\xb7\x11L\xdeoC'
p1930
ssS'_Users_graememaciver_Projects_GM07-KeyStore_venv_lib_python2_7_site-packages_django_utils_itercompat'
p1931
(dp1932
g6
(dp1933
g8
S'_Users_graememaciver_Projects_GM07-KeyStore_venv_lib_python2_7_site-packages_django_utils_itercompat.html'
p1934
sg10
S'/Users/graememaciver/Projects/GM07-KeyStore/venv/lib/python2.7/site-packages/django/utils/itercompat'
p1935
sg12
g13
(g14
g15
NtRp1936
(dp1937
g18
I1
sg19
I0
sg20
I23
sg21
I0
sg22
I0
sg23
I12
sg24
I0
sbssg25
S'\x89\xda\x9c\xeax\xbe\xf7V]S\x1e\xf2\x17\x8f\xce\x88'
p1938
ssS'_Users_graememaciver_Projects_GM07-KeyStore_venv_lib_python2_7_site-packages_openid_cryptutil'
p1939
(dp1940
g6
(dp1941
g8
S'_Users_graememaciver_Projects_GM07-KeyStore_venv_lib_python2_7_site-packages_openid_cryptutil.html'
p1942
sg10
S'/Users/graememaciver/Projects/GM07-KeyStore/venv/lib/python2.7/site-packages/openid/cryptutil'
p1943
sg12
g13
(g14
g15
NtRp1944
(dp1945
g18
I1
sg19
I0
sg20
I128
sg21
I0
sg22
I0
sg23
I91
sg24
I0
sbssg25
S'\x9e5\xbb\x9fp}\x93I\xa5l\x14Qh\x8d\xe8g'
p1946
ssS'_Users_graememaciver_Projects_GM07-KeyStore_venv_lib_python2_7_site-packages_django_core_wsgi'
p1947
(dp1948
g6
(dp1949
g8
S'_Users_graememaciver_Projects_GM07-KeyStore_venv_lib_python2_7_site-packages_django_core_wsgi.html'
p1950
sg10
S'/Users/graememaciver/Projects/GM07-KeyStore/venv/lib/python2.7/site-packages/django/core/wsgi'
p1951
sg12
g13
(g14
g15
NtRp1952
(dp1953
g18
I1
sg19
I0
sg20
I3
sg21
I0
sg22
I0
sg23
I1
sg24
I0
sbssg25
S' \x0e\x1b\xd1D\xd0\x13<c\x84?v\xdf\xd1\xf8\x84'
p1954
ssS'_Users_graememaciver_Projects_GM07-KeyStore_venv_lib_python2_7_site-packages_django_contrib_sessions_backends_db'
p1955
(dp1956
g6
(dp1957
g8
S'_Users_graememaciver_Projects_GM07-KeyStore_venv_lib_python2_7_site-packages_django_contrib_sessions_backends_db.html'
p1958
sg10
S'/Users/graememaciver/Projects/GM07-KeyStore/venv/lib/python2.7/site-packages/django/contrib/sessions/backends/db'
p1959
sg12
g13
(g14
g15
NtRp1960
(dp1961
g18
I1
sg19
I0
sg20
I50
sg21
I0
sg22
I0
sg23
I37
sg24
I0
sbssg25
S'\xb3\x8b\xf8\x07@\x04\x80a\xb9\xc60\xedX\x1cw\xc0'
p1962
ssS'_Users_graememaciver_Projects_GM07-KeyStore_venv_lib_python2_7_site-packages_openid_oidutil'
p1963
(dp1964
g6
(dp1965
g8
S'_Users_graememaciver_Projects_GM07-KeyStore_venv_lib_python2_7_site-packages_openid_oidutil.html'
p1966
sg10
S'/Users/graememaciver/Projects/GM07-KeyStore/venv/lib/python2.7/site-packages/openid/oidutil'
p1967
sg12
g13
(g14
g15
NtRp1968
(dp1969
g18
I1
sg19
I0
sg20
I65
sg21
I0
sg22
I0
sg23
I36
sg24
I0
sbssg25
S'\xff\xee\xa7TNzvFk`Q\xe4\xa7\xb0\x07\xc1'
p1970
ssS'_Users_graememaciver_Projects_GM07-KeyStore_venv_lib_python2_7_site-packages_south_introspection_plugins_django_objectpermissions'
p1971
(dp1972
g6
(dp1973
g8
S'_Users_graememaciver_Projects_GM07-KeyStore_venv_lib_python2_7_site-packages_south_introspection_plugins_django_objectpermissions.html'
p1974
sg10
S'/Users/graememaciver/Projects/GM07-KeyStore/venv/lib/python2.7/site-packages/south/introspection_plugins/django_objectpermissions'
p1975
sg12
g13
(g14
g15
NtRp1976
(dp1977
g18
I1
sg19
I0
sg20
I8
sg21
I0
sg22
I0
sg23
I5
sg24
I0
sbssg25
S'\xcdh\x11qdc\xfe\xaa\xd2\x08\xd2OB \xdf\xdb'
p1978
ssS'_Users_graememaciver_Projects_GM07-KeyStore_venv_lib_python2_7_site-packages_social_auth_management___init__'
p1979
(dp1980
g6
(dp1981
g8
S'_Users_graememaciver_Projects_GM07-KeyStore_venv_lib_python2_7_site-packages_social_auth_management___init__.html'
p1982
sg10
S'/Users/graememaciver/Projects/GM07-KeyStore/venv/lib/python2.7/site-packages/social_auth/management/__init__'
p1983
sg12
g13
(g14
g15
NtRp1984
(dp1985
g18
I1
sg19
I0
sg20
I0
sg21
I0
sg22
I0
sg23
I0
sg24
I0
sbssg25
S'\xb0\xc8pN\xaf>\xa0\xbaz\x144\xe0A9\xb8?'
p1986
ssS'_Users_graememaciver_Projects_GM07-KeyStore_venv_lib_python2_7_site-packages_django_utils_regex_helper'
p1987
(dp1988
g6
(dp1989
g8
S'_Users_graememaciver_Projects_GM07-KeyStore_venv_lib_python2_7_site-packages_django_utils_regex_helper.html'
p1990
sg10
S'/Users/graememaciver/Projects/GM07-KeyStore/venv/lib/python2.7/site-packages/django/utils/regex_helper'
p1991
sg12
g13
(g14
g15
NtRp1992
(dp1993
g18
I1
sg19
I0
sg20
I188
sg21
I0
sg22
I0
sg23
I175
sg24
I0
sbssg25
S'\xab\xc0\xa2\xe6\xd9PI*\xba_T\xc0qG\x0e\x97'
p1994
ssS'_Users_graememaciver_Projects_GM07-KeyStore_venv_lib_python2_7_site-packages_django_core_management_commands_flush'
p1995
(dp1996
g6
(dp1997
g8
S'_Users_graememaciver_Projects_GM07-KeyStore_venv_lib_python2_7_site-packages_django_core_management_commands_flush.html'
p1998
sg10
S'/Users/graememaciver/Projects/GM07-KeyStore/venv/lib/python2.7/site-packages/django/core/management/commands/flush'
p1999
sg12
g13
(g14
g15
NtRp2000
(dp2001
g18
I1
sg19
I0
sg20
I46
sg21
I0
sg22
I0
sg23
I33
sg24
I0
sbssg25
S'\x00\xa0\xf3\x17$\x119\xb5S\x9b\x9d\xf6\xa3\x01\xb6\xeb'
p2002
ssS'_Users_graememaciver_Projects_GM07-KeyStore_venv_lib_python2_7_site-packages_django_contrib_staticfiles_storage'
p2003
(dp2004
g6
(dp2005
g8
S'_Users_graememaciver_Projects_GM07-KeyStore_venv_lib_python2_7_site-packages_django_contrib_staticfiles_storage.html'
p2006
sg10
S'/Users/graememaciver/Projects/GM07-KeyStore/venv/lib/python2.7/site-packages/django/contrib/staticfiles/storage'
p2007
sg12
g13
(g14
g15
NtRp2008
(dp2009
g18
I1
sg19
I0
sg20
I181
sg21
I0
sg22
I0
sg23
I138
sg24
I0
sbssg25
S'\x82\x1b\x1e\xcb\n\xd3\xd9\x94\tb\x06})\xa3o\xa3'
p2010
ssS'__init__'
p2011
(dp2012
g6
(dp2013
g8
S'__init__.html'
p2014
sg10
g2011
sg12
g13
(g14
g15
NtRp2015
(dp2016
g18
I1
sg19
I0
sg20
I0
sg21
I0
sg22
I0
sg23
I0
sg24
I0
sbssg25
S'\xb0\xc8pN\xaf>\xa0\xbaz\x144\xe0A9\xb8?'
p2017
ssS'_Users_graememaciver_Projects_GM07-KeyStore_venv_lib_python2_7_site-packages_discover_runner_runner'
p2018
(dp2019
g6
(dp2020
g8
S'_Users_graememaciver_Projects_GM07-KeyStore_venv_lib_python2_7_site-packages_discover_runner_runner.html'
p2021
sg10
S'/Users/graememaciver/Projects/GM07-KeyStore/venv/lib/python2.7/site-packages/discover_runner/runner'
p2022
sg12
g13
(g14
g15
NtRp2023
(dp2024
g18
I1
sg19
I0
sg20
I151
sg21
I0
sg22
I0
sg23
I30
sg24
I0
sbssg25
S'\xb6Dq\xe6\xb4\xd7\x80\\8\xc7kF8\xa6\xa2\xcb'
p2025
ssS'settings_test'
p2026
(dp2027
g6
(dp2028
g8
S'settings_test.html'
p2029
sg10
S'settings/test'
p2030
sg12
g13
(g14
g15
NtRp2031
(dp2032
g18
I1
sg19
I0
sg20
I14
sg21
I0
sg22
I0
sg23
I0
sg24
I0
sbssg25
S'\x83*F\x16\x12-\x9c\x91>p\xa7B\xa6s\xf8\xa6'
p2033
ssS'_Users_graememaciver_Projects_GM07-KeyStore_venv_lib_python2_7_site-packages_django_db_models_fields_subclassing'
p2034
(dp2035
g6
(dp2036
g8
S'_Users_graememaciver_Projects_GM07-KeyStore_venv_lib_python2_7_site-packages_django_db_models_fields_subclassing.html'
p2037
sg10
S'/Users/graememaciver/Projects/GM07-KeyStore/venv/lib/python2.7/site-packages/django/db/models/fields/subclassing'
p2038
sg12
g13
(g14
g15
NtRp2039
(dp2040
g18
I1
sg19
I0
sg20
I21
sg21
I0
sg22
I0
sg23
I5
sg24
I0
sbssg25
S'\x00\xdc\x8a\x8eJU\xe1\xbb\x17\xd2?\xb2\xbe0\x98\xac'
p2041
ssS'_Users_graememaciver_Projects_GM07-KeyStore_venv_lib_python2_7_site-packages_django_test___init__'
p2042
(dp2043
g6
(dp2044
g8
S'_Users_graememaciver_Projects_GM07-KeyStore_venv_lib_python2_7_site-packages_django_test___init__.html'
p2045
sg10
S'/Users/graememaciver/Projects/GM07-KeyStore/venv/lib/python2.7/site-packages/django/test/__init__'
p2046
sg12
g13
(g14
g15
NtRp2047
(dp2048
g18
I1
sg19
I0
sg20
I3
sg21
I0
sg22
I0
sg23
I0
sg24
I0
sbssg25
S"k\xb8'p2\xfc8\xaf8\xa4\xad\xa4\xe9\x8c\x1c\xc3"
p2049
ssS'_Users_graememaciver_Projects_GM07-KeyStore_venv_lib_python2_7_site-packages_south_introspection_plugins_django_tagging'
p2050
(dp2051
g6
(dp2052
g8
S'_Users_graememaciver_Projects_GM07-KeyStore_venv_lib_python2_7_site-packages_south_introspection_plugins_django_tagging.html'
p2053
sg10
S'/Users/graememaciver/Projects/GM07-KeyStore/venv/lib/python2.7/site-packages/south/introspection_plugins/django_tagging'
p2054
sg12
g13
(g14
g15
NtRp2055
(dp2056
g18
I1
sg19
I0
sg20
I11
sg21
I0
sg22
I0
sg23
I7
sg24
I0
sbssg25
S'\x18I\xc4\xcdU\xf7\x82\xa3*Zt\xa1xac\xce'
p2057
ssS'_Users_graememaciver_Projects_GM07-KeyStore_venv_lib_python2_7_site-packages_django_db_models_sql_query'
p2058
(dp2059
g6
(dp2060
g8
S'_Users_graememaciver_Projects_GM07-KeyStore_venv_lib_python2_7_site-packages_django_db_models_sql_query.html'
p2061
sg10
S'/Users/graememaciver/Projects/GM07-KeyStore/venv/lib/python2.7/site-packages/django/db/models/sql/query'
p2062
sg12
g13
(g14
g15
NtRp2063
(dp2064
g18
I1
sg19
I0
sg20
I1050
sg21
I0
sg22
I0
sg23
I576
sg24
I0
sbssg25
S'\x96\xa1y\xa9\x8b@\x87@\x97\xc0\xe5\xfa\t^\x80{'
p2065
ssS'_Users_graememaciver_Projects_GM07-KeyStore_venv_lib_python2_7_site-packages_django_db_models_fields_files'
p2066
(dp2067
g6
(dp2068
g8
S'_Users_graememaciver_Projects_GM07-KeyStore_venv_lib_python2_7_site-packages_django_db_models_fields_files.html'
p2069
sg10
S'/Users/graememaciver/Projects/GM07-KeyStore/venv/lib/python2.7/site-packages/django/db/models/fields/files'
p2070
sg12
g13
(g14
g15
NtRp2071
(dp2072
g18
I1
sg19
I0
sg20
I204
sg21
I0
sg22
I0
sg23
I136
sg24
I0
sbssg25
S'\xcf\x942!\xc9\xb4\xaa\x17\x05DT\x9eS\x89\x0fg'
p2073
ssS'_Users_graememaciver_Projects_GM07-KeyStore_venv_lib_python2_7_site-packages_django_contrib_contenttypes_generic'
p2074
(dp2075
g6
(dp2076
g8
S'_Users_graememaciver_Projects_GM07-KeyStore_venv_lib_python2_7_site-packages_django_contrib_contenttypes_generic.html'
p2077
sg10
S'/Users/graememaciver/Projects/GM07-KeyStore/venv/lib/python2.7/site-packages/django/contrib/contenttypes/generic'
p2078
sg12
g13
(g14
g15
NtRp2079
(dp2080
g18
I1
sg19
I0
sg20
I275
sg21
I0
sg22
I0
sg23
I215
sg24
I0
sbssg25
S'B\xbb\x1c\xda\x16o\xcc\x1b\xabQ\x9cbP*\xaen'
p2081
ssS'_Users_graememaciver_Projects_GM07-KeyStore_venv_lib_python2_7_site-packages_django_contrib_sites_models'
p2082
(dp2083
g6
(dp2084
g8
S'_Users_graememaciver_Projects_GM07-KeyStore_venv_lib_python2_7_site-packages_django_contrib_sites_models.html'
p2085
sg10
S'/Users/graememaciver/Projects/GM07-KeyStore/venv/lib/python2.7/site-packages/django/contrib/sites/models'
p2086
sg12
g13
(g14
g15
NtRp2087
(dp2088
g18
I1
sg19
I0
sg20
I58
sg21
I0
sg22
I0
sg23
I28
sg24
I0
sbssg25
S'\x15\x99o\x91D\xf0\xc9\x99\xa92\xa7\n\xbf\xc4)\xac'
p2089
ssS'_Users_graememaciver_Projects_GM07-KeyStore_venv_lib_python2_7_site-packages_django_core_validators'
p2090
(dp2091
g6
(dp2092
g8
S'_Users_graememaciver_Projects_GM07-KeyStore_venv_lib_python2_7_site-packages_django_core_validators.html'
p2093
sg10
S'/Users/graememaciver/Projects/GM07-KeyStore/venv/lib/python2.7/site-packages/django/core/validators'
p2094
sg12
g13
(g14
g15
NtRp2095
(dp2096
g18
I1
sg19
I0
sg20
I120
sg21
I0
sg22
I0
sg23
I51
sg24
I0
sbssg25
S'\xca\xb7=\xe8v\x8cR\xf1\x07\x95\x8f\\:"\xe7\xae'
p2097
ssS'_Users_graememaciver_Projects_GM07-KeyStore_venv_lib_python2_7_site-packages_django_contrib_staticfiles_views'
p2098
(dp2099
g6
(dp2100
g8
S'_Users_graememaciver_Projects_GM07-KeyStore_venv_lib_python2_7_site-packages_django_contrib_staticfiles_views.html'
p2101
sg10
S'/Users/graememaciver/Projects/GM07-KeyStore/venv/lib/python2.7/site-packages/django/contrib/staticfiles/views'
p2102
sg12
g13
(g14
g15
NtRp2103
(dp2104
g18
I1
sg19
I0
sg20
I22
sg21
I0
sg22
I0
sg23
I10
sg24
I0
sbssg25
S'\xdf\x8em,\x98CRFQ\x89$\xf4\x0e\xb5A\x1b'
p2105
ssS'_Users_graememaciver_Projects_GM07-KeyStore_venv_lib_python2_7_site-packages_django_contrib_auth___init__'
p2106
(dp2107
g6
(dp2108
g8
S'_Users_graememaciver_Projects_GM07-KeyStore_venv_lib_python2_7_site-packages_django_contrib_auth___init__.html'
p2109
sg10
S'/Users/graememaciver/Projects/GM07-KeyStore/venv/lib/python2.7/site-packages/django/contrib/auth/__init__'
p2110
sg12
g13
(g14
g15
NtRp2111
(dp2112
g18
I1
sg19
I0
sg20
I91
sg21
I0
sg22
I0
sg23
I68
sg24
I0
sbssg25
S'\x84D\xd1r\xd0\xffu\xcf\xc1^)Z\xe5\x9d\xc3\xa1'
p2113
ssS'_Users_graememaciver_Projects_GM07-KeyStore_venv_lib_python2_7_site-packages_south___init__'
p2114
(dp2115
g6
(dp2116
g8
S'_Users_graememaciver_Projects_GM07-KeyStore_venv_lib_python2_7_site-packages_south___init__.html'
p2117
sg10
S'/Users/graememaciver/Projects/GM07-KeyStore/venv/lib/python2.7/site-packages/south/__init__'
p2118
sg12
g13
(g14
g15
NtRp2119
(dp2120
g18
I1
sg19
I0
sg20
I2
sg21
I0
sg22
I0
sg23
I0
sg24
I0
sbssg25
S';P\x1e\xd7C"\x13\x1d=c,\\h\x00\xbep'
p2121
ssS'_Users_graememaciver_Projects_GM07-KeyStore_venv_lib_python2_7_site-packages_django_db_models_fields_proxy'
p2122
(dp2123
g6
(dp2124
g8
S'_Users_graememaciver_Projects_GM07-KeyStore_venv_lib_python2_7_site-packages_django_db_models_fields_proxy.html'
p2125
sg10
S'/Users/graememaciver/Projects/GM07-KeyStore/venv/lib/python2.7/site-packages/django/db/models/fields/proxy'
p2126
sg12
g13
(g14
g15
NtRp2127
(dp2128
g18
I1
sg19
I0
sg20
I6
sg21
I0
sg22
I0
sg23
I3
sg24
I0
sbssg25
S'\xaf:\xd7\xa5\xadun\x1b\xb7\x141\x81\x80j\x94\xe6'
p2129
ssS'_Users_graememaciver_Projects_GM07-KeyStore_venv_lib_python2_7_site-packages_django_utils_dateformat'
p2130
(dp2131
g6
(dp2132
g8
S'_Users_graememaciver_Projects_GM07-KeyStore_venv_lib_python2_7_site-packages_django_utils_dateformat.html'
p2133
sg10
S'/Users/graememaciver/Projects/GM07-KeyStore/venv/lib/python2.7/site-packages/django/utils/dateformat'
p2134
sg12
g13
(g14
g15
NtRp2135
(dp2136
g18
I1
sg19
I0
sg20
I181
sg21
I0
sg22
I0
sg23
I119
sg24
I0
sbssg25
S'\xb5E)F\x839\xcdaS\xdb\x02\x1e\x8a9\xcf\xb0'
p2137
ssS'_Users_graememaciver_Projects_GM07-KeyStore_venv_lib_python2_7_site-packages_django_core_serializers_base'
p2138
(dp2139
g6
(dp2140
g8
S'_Users_graememaciver_Projects_GM07-KeyStore_venv_lib_python2_7_site-packages_django_core_serializers_base.html'
p2141
sg10
S'/Users/graememaciver/Projects/GM07-KeyStore/venv/lib/python2.7/site-packages/django/core/serializers/base'
p2142
sg12
g13
(g14
g15
NtRp2143
(dp2144
g18
I1
sg19
I0
sg20
I77
sg21
I0
sg22
I0
sg23
I49
sg24
I0
sbssg25
S'\x9f\xf8\xb9\x97/\x18\xcd\xb5\tJ\x96$\xbb\xe8U\xd5'
p2145
ssS'_Users_graememaciver_Projects_GM07-KeyStore_venv_lib_python2_7_site-packages_django_middleware_cache'
p2146
(dp2147
g6
(dp2148
g8
S'_Users_graememaciver_Projects_GM07-KeyStore_venv_lib_python2_7_site-packages_django_middleware_cache.html'
p2149
sg10
S'/Users/graememaciver/Projects/GM07-KeyStore/venv/lib/python2.7/site-packages/django/middleware/cache'
p2150
sg12
g13
(g14
g15
NtRp2151
(dp2152
g18
I1
sg19
I0
sg20
I91
sg21
I0
sg22
I0
sg23
I78
sg24
I0
sbssg25
S'\x80\xb7\x9e\xfb\x8c?\x8bw\xcc\xa4\x84B\xe9KA5'
p2153
ssS'_Users_graememaciver_Projects_GM07-KeyStore_venv_lib_python2_7_site-packages_django_utils_cache'
p2154
(dp2155
g6
(dp2156
g8
S'_Users_graememaciver_Projects_GM07-KeyStore_venv_lib_python2_7_site-packages_django_utils_cache.html'
p2157
sg10
S'/Users/graememaciver/Projects/GM07-KeyStore/venv/lib/python2.7/site-packages/django/utils/cache'
p2158
sg12
g13
(g14
g15
NtRp2159
(dp2160
g18
I1
sg19
I0
sg20
I126
sg21
I0
sg22
I0
sg23
I102
sg24
I0
sbssg25
S'1E\x8e\xa3\xca$@.\x17\xff9\x1a\\\xbb\xa5r'
p2161
ssS'_Users_graememaciver_Projects_GM07-KeyStore_venv_lib_python2_7_site-packages_django_utils_xmlutils'
p2162
(dp2163
g6
(dp2164
g8
S'_Users_graememaciver_Projects_GM07-KeyStore_venv_lib_python2_7_site-packages_django_utils_xmlutils.html'
p2165
sg10
S'/Users/graememaciver/Projects/GM07-KeyStore/venv/lib/python2.7/site-packages/django/utils/xmlutils'
p2166
sg12
g13
(g14
g15
NtRp2167
(dp2168
g18
I1
sg19
I0
sg20
I8
sg21
I0
sg22
I0
sg23
I5
sg24
I0
sbssg25
S'\xf1J\xb5(\x1cm\xf1\x8bQ\xab\x89\xc1\xce\x91R\x8f'
p2169
ssS'_Users_graememaciver_Projects_GM07-KeyStore_venv_lib_python2_7_site-packages_django_contrib_auth_signals'
p2170
(dp2171
g6
(dp2172
g8
S'_Users_graememaciver_Projects_GM07-KeyStore_venv_lib_python2_7_site-packages_django_contrib_auth_signals.html'
p2173
sg10
S'/Users/graememaciver/Projects/GM07-KeyStore/venv/lib/python2.7/site-packages/django/contrib/auth/signals'
p2174
sg12
g13
(g14
g15
NtRp2175
(dp2176
g18
I1
sg19
I0
sg20
I4
sg21
I0
sg22
I0
sg23
I0
sg24
I0
sbssg25
S'juq\x85\xf8\xf6\x92\xd4\xc6;\xc1\x16\xc2\xaa\xe6\xec'
p2177
ssS'_Users_graememaciver_Projects_GM07-KeyStore_venv_lib_python2_7_site-packages_south_orm'
p2178
(dp2179
g6
(dp2180
g8
S'_Users_graememaciver_Projects_GM07-KeyStore_venv_lib_python2_7_site-packages_south_orm.html'
p2181
sg10
S'/Users/graememaciver/Projects/GM07-KeyStore/venv/lib/python2.7/site-packages/south/orm'
p2182
sg12
g13
(g14
g15
NtRp2183
(dp2184
g18
I1
sg19
I0
sg20
I212
sg21
I0
sg22
I0
sg23
I74
sg24
I0
sbssg25
S'\xf9\xe9\xa6G\x9f\x15V\xb4PE\xed~\xfd\xa0\xcc\x8c'
p2185
ssS'_Users_graememaciver_Projects_GM07-KeyStore_venv_lib_python2_7_site-packages_django_template_base'
p2186
(dp2187
g6
(dp2188
g8
S'_Users_graememaciver_Projects_GM07-KeyStore_venv_lib_python2_7_site-packages_django_template_base.html'
p2189
sg10
S'/Users/graememaciver/Projects/GM07-KeyStore/venv/lib/python2.7/site-packages/django/template/base'
p2190
sg12
g13
(g14
g15
NtRp2191
(dp2192
g18
I1
sg19
I0
sg20
I778
sg21
I0
sg22
I0
sg23
I563
sg24
I0
sbssg25
S'\xa9\xfd\xe8\x04\x18\x9f\x17~\xfb\xe7\x12\x1c\x8c\xd8\xfa\xcb'
p2193
ssS'_Users_graememaciver_Projects_GM07-KeyStore_venv_lib_python2_7_site-packages_django_contrib_contenttypes___init__'
p2194
(dp2195
g6
(dp2196
g8
S'_Users_graememaciver_Projects_GM07-KeyStore_venv_lib_python2_7_site-packages_django_contrib_contenttypes___init__.html'
p2197
sg10
S'/Users/graememaciver/Projects/GM07-KeyStore/venv/lib/python2.7/site-packages/django/contrib/contenttypes/__init__'
p2198
sg12
g13
(g14
g15
NtRp2199
(dp2200
g18
I1
sg19
I0
sg20
I0
sg21
I0
sg22
I0
sg23
I0
sg24
I0
sbssg25
S'\xb0\xc8pN\xaf>\xa0\xbaz\x144\xe0A9\xb8?'
p2201
ssS'_Users_graememaciver_Projects_GM07-KeyStore_venv_lib_python2_7_site-packages_django_core_handlers___init__'
p2202
(dp2203
g6
(dp2204
g8
S'_Users_graememaciver_Projects_GM07-KeyStore_venv_lib_python2_7_site-packages_django_core_handlers___init__.html'
p2205
sg10
S'/Users/graememaciver/Projects/GM07-KeyStore/venv/lib/python2.7/site-packages/django/core/handlers/__init__'
p2206
sg12
g13
(g14
g15
NtRp2207
(dp2208
g18
I1
sg19
I0
sg20
I0
sg21
I0
sg22
I0
sg23
I0
sg24
I0
sbssg25
S'\xb0\xc8pN\xaf>\xa0\xbaz\x144\xe0A9\xb8?'
p2209
ssS'_Users_graememaciver_Projects_GM07-KeyStore_venv_lib_python2_7_site-packages_django_templatetags___init__'
p2210
(dp2211
g6
(dp2212
g8
S'_Users_graememaciver_Projects_GM07-KeyStore_venv_lib_python2_7_site-packages_django_templatetags___init__.html'
p2213
sg10
S'/Users/graememaciver/Projects/GM07-KeyStore/venv/lib/python2.7/site-packages/django/templatetags/__init__'
p2214
sg12
g13
(g14
g15
NtRp2215
(dp2216
g18
I1
sg19
I0
sg20
I0
sg21
I0
sg22
I0
sg23
I0
sg24
I0
sbssg25
S'\xb0\xc8pN\xaf>\xa0\xbaz\x144\xe0A9\xb8?'
p2217
ssS'_Users_graememaciver_Projects_GM07-KeyStore_keys_models'
p2218
(dp2219
g6
(dp2220
g8
S'_Users_graememaciver_Projects_GM07-KeyStore_keys_models.html'
p2221
sg10
S'/Users/graememaciver/Projects/GM07-KeyStore/keys/models'
p2222
sg12
g13
(g14
g15
NtRp2223
(dp2224
g18
I1
sg19
I0
sg20
I7
sg21
I0
sg22
I0
sg23
I0
sg24
I0
sbssg25
S'dz\x1f]\xd3UE\xc8\xfc\x81\xca\x0e"Z\xfb\xe7'
p2225
ssS'_Users_graememaciver_Projects_GM07-KeyStore_venv_lib_python2_7_site-packages_django_conf___init__'
p2226
(dp2227
g6
(dp2228
g8
S'_Users_graememaciver_Projects_GM07-KeyStore_venv_lib_python2_7_site-packages_django_conf___init__.html'
p2229
sg10
S'/Users/graememaciver/Projects/GM07-KeyStore/venv/lib/python2.7/site-packages/django/conf/__init__'
p2230
sg12
g13
(g14
g15
NtRp2231
(dp2232
g18
I1
sg19
I0
sg20
I112
sg21
I0
sg22
I0
sg23
I39
sg24
I0
sbssg25
S'\xabm\xc4\x97\x01g\xea\xe7\xee\xcc\xbd\xff\x8bD\xb8\xa3'
p2233
ssS'_Users_graememaciver_Projects_GM07-KeyStore_venv_lib_python2_7_site-packages_south_db_generic'
p2234
(dp2235
g6
(dp2236
g8
S'_Users_graememaciver_Projects_GM07-KeyStore_venv_lib_python2_7_site-packages_south_db_generic.html'
p2237
sg10
S'/Users/graememaciver/Projects/GM07-KeyStore/venv/lib/python2.7/site-packages/south/db/generic'
p2238
sg12
g13
(g14
g15
NtRp2239
(dp2240
g18
I1
sg19
I0
sg20
I584
sg21
I0
sg22
I0
sg23
I278
sg24
I0
sbssg25
S'[\x9e\xca\x97};\xa0\xab\xb5\x01(\xfe\x18{\xd7D'
p2241
ssS'_Users_graememaciver_Projects_GM07-KeyStore_venv_lib_python2_7_site-packages_south_hacks___init__'
p2242
(dp2243
g6
(dp2244
g8
S'_Users_graememaciver_Projects_GM07-KeyStore_venv_lib_python2_7_site-packages_south_hacks___init__.html'
p2245
sg10
S'/Users/graememaciver/Projects/GM07-KeyStore/venv/lib/python2.7/site-packages/south/hacks/__init__'
p2246
sg12
g13
(g14
g15
NtRp2247
(dp2248
g18
I1
sg19
I0
sg20
I2
sg21
I0
sg22
I0
sg23
I0
sg24
I0
sbssg25
S'\xe8V3k\xb0\xad\xbb\xda\xbeP\x9d]y\xd9\xfcT'
p2249
ssS'_Users_graememaciver_Projects_GM07-KeyStore_venv_lib_python2_7_site-packages_django_db_backends_sqlite3_introspection'
p2250
(dp2251
g6
(dp2252
g8
S'_Users_graememaciver_Projects_GM07-KeyStore_venv_lib_python2_7_site-packages_django_db_backends_sqlite3_introspection.html'
p2253
sg10
S'/Users/graememaciver/Projects/GM07-KeyStore/venv/lib/python2.7/site-packages/django/db/backends/sqlite3/introspection'
p2254
sg12
g13
(g14
g15
NtRp2255
(dp2256
g18
I1
sg19
I0
sg20
I92
sg21
I0
sg22
I0
sg23
I57
sg24
I0
sbssg25
S'=\x0e~\xdey\x0b\xabEs\xf3\x82\xb3\xc3\xecF\xa6'
p2257
ssS'_Users_graememaciver_Projects_GM07-KeyStore_venv_lib_python2_7_site-packages_django_core_cache_backends_base'
p2258
(dp2259
g6
(dp2260
g8
S'_Users_graememaciver_Projects_GM07-KeyStore_venv_lib_python2_7_site-packages_django_core_cache_backends_base.html'
p2261
sg10
S'/Users/graememaciver/Projects/GM07-KeyStore/venv/lib/python2.7/site-packages/django/core/cache/backends/base'
p2262
sg12
g13
(g14
g15
NtRp2263
(dp2264
g18
I1
sg19
I0
sg20
I99
sg21
I0
sg22
I0
sg23
I54
sg24
I0
sbssg25
S"Z\x10\x8f\xfa\xa3\x15G[\x9d\xb972'\xfe_\xbb"
p2265
ssS'_Users_graememaciver_Projects_GM07-KeyStore_venv_lib_python2_7_site-packages_django_views___init__'
p2266
(dp2267
g6
(dp2268
g8
S'_Users_graememaciver_Projects_GM07-KeyStore_venv_lib_python2_7_site-packages_django_views___init__.html'
p2269
sg10
S'/Users/graememaciver/Projects/GM07-KeyStore/venv/lib/python2.7/site-packages/django/views/__init__'
p2270
sg12
g13
(g14
g15
NtRp2271
(dp2272
g18
I1
sg19
I0
sg20
I0
sg21
I0
sg22
I0
sg23
I0
sg24
I0
sbssg25
S'\xb0\xc8pN\xaf>\xa0\xbaz\x144\xe0A9\xb8?'
p2273
ssS'_Users_graememaciver_Projects_GM07-KeyStore_keys_migrations_0001_initial'
p2274
(dp2275
g6
(dp2276
g8
S'_Users_graememaciver_Projects_GM07-KeyStore_keys_migrations_0001_initial.html'
p2277
sg10
S'/Users/graememaciver/Projects/GM07-KeyStore/keys/migrations/0001_initial'
p2278
sg12
g13
(g14
g15
NtRp2279
(dp2280
g18
I1
sg19
I0
sg20
I12
sg21
I0
sg22
I0
sg23
I1
sg24
I0
sbssg25
S'\x92\xf34Z}\xe5\xe2\xef#,+u\x911\x81\x1d'
p2281
ssS'_Users_graememaciver_Projects_GM07-KeyStore_venv_lib_python2_7_site-packages_social_auth___init__'
p2282
(dp2283
g6
(dp2284
g8
S'_Users_graememaciver_Projects_GM07-KeyStore_venv_lib_python2_7_site-packages_social_auth___init__.html'
p2285
sg10
S'/Users/graememaciver/Projects/GM07-KeyStore/venv/lib/python2.7/site-packages/social_auth/__init__'
p2286
sg12
g13
(g14
g15
NtRp2287
(dp2288
g18
I1
sg19
I0
sg20
I2
sg21
I0
sg22
I0
sg23
I0
sg24
I0
sbssg25
S'\xeao3VK\x08\x1d\xea\xd3\xccu\xfa\x0fz\xda\xd9'
p2289
ssS'_Users_graememaciver_Projects_GM07-KeyStore_venv_lib_python2_7_site-packages_south_management_commands_syncdb'
p2290
(dp2291
g6
(dp2292
g8
S'_Users_graememaciver_Projects_GM07-KeyStore_venv_lib_python2_7_site-packages_south_management_commands_syncdb.html'
p2293
sg10
S'/Users/graememaciver/Projects/GM07-KeyStore/venv/lib/python2.7/site-packages/south/management/commands/syncdb'
p2294
sg12
g13
(g14
g15
NtRp2295
(dp2296
g18
I1
sg19
I0
sg20
I66
sg21
I0
sg22
I0
sg23
I12
sg24
I0
sbssg25
S'\x8a\xe0\xb8b\xe5\xaeE\xde\xa7\xa3\xfa\xea\r\x99\x013'
p2297
ssS'_Users_graememaciver_Projects_GM07-KeyStore_venv_lib_python2_7_site-packages_django_core_cache_backends_db'
p2298
(dp2299
g6
(dp2300
g8
S'_Users_graememaciver_Projects_GM07-KeyStore_venv_lib_python2_7_site-packages_django_core_cache_backends_db.html'
p2301
sg10
S'/Users/graememaciver/Projects/GM07-KeyStore/venv/lib/python2.7/site-packages/django/core/cache/backends/db'
p2302
sg12
g13
(g14
g15
NtRp2303
(dp2304
g18
I1
sg19
I0
sg20
I128
sg21
I0
sg22
I0
sg23
I103
sg24
I0
sbssg25
S'\x18Sqc@\x84\x05\x07\xfd"h\x9e\xf4\xb3\xbfp'
p2305
ssS'_Users_graememaciver_Projects_GM07-KeyStore_venv_lib_python2_7_site-packages_django_db_utils'
p2306
(dp2307
g6
(dp2308
g8
S'_Users_graememaciver_Projects_GM07-KeyStore_venv_lib_python2_7_site-packages_django_db_utils.html'
p2309
sg10
S'/Users/graememaciver/Projects/GM07-KeyStore/venv/lib/python2.7/site-packages/django/db/utils'
p2310
sg12
g13
(g14
g15
NtRp2311
(dp2312
g18
I1
sg19
I0
sg20
I119
sg21
I0
sg22
I0
sg23
I53
sg24
I0
sbssg25
S'\xe3\x985\x8e8\xfb?\\\x04\x94\x0e\x06\xfcC\xf2.'
p2313
ssS'_Users_graememaciver_Projects_GM07-KeyStore_venv_lib_python2_7_site-packages_django_conf_locale___init__'
p2314
(dp2315
g6
(dp2316
g8
S'_Users_graememaciver_Projects_GM07-KeyStore_venv_lib_python2_7_site-packages_django_conf_locale___init__.html'
p2317
sg10
S'/Users/graememaciver/Projects/GM07-KeyStore/venv/lib/python2.7/site-packages/django/conf/locale/__init__'
p2318
sg12
g13
(g14
g15
NtRp2319
(dp2320
g18
I1
sg19
I0
sg20
I2
sg21
I0
sg22
I0
sg23
I0
sg24
I0
sbssg25
S'\xae\x8bs5R\x03qS)\xeb\xee\x03\x93\xa1&<'
p2321
ssS'_Users_graememaciver_Projects_GM07-KeyStore_venv_lib_python2_7_site-packages_django_contrib_contenttypes_views'
p2322
(dp2323
g6
(dp2324
g8
S'_Users_graememaciver_Projects_GM07-KeyStore_venv_lib_python2_7_site-packages_django_contrib_contenttypes_views.html'
p2325
sg10
S'/Users/graememaciver/Projects/GM07-KeyStore/venv/lib/python2.7/site-packages/django/contrib/contenttypes/views'
p2326
sg12
g13
(g14
g15
NtRp2327
(dp2328
g18
I1
sg19
I0
sg20
I50
sg21
I0
sg22
I0
sg23
I43
sg24
I0
sbssg25
S'\xd2a\x7f\x1e\x9d\x8e\xe3\xc0\x0b\x0c\x19\xcfXg\xae\x16'
p2329
ssS'_Users_graememaciver_Projects_GM07-KeyStore_venv_lib_python2_7_site-packages_django_contrib_admin_options'
p2330
(dp2331
g6
(dp2332
g8
S'_Users_graememaciver_Projects_GM07-KeyStore_venv_lib_python2_7_site-packages_django_contrib_admin_options.html'
p2333
sg10
S'/Users/graememaciver/Projects/GM07-KeyStore/venv/lib/python2.7/site-packages/django/contrib/admin/options'
p2334
sg12
g13
(g14
g15
NtRp2335
(dp2336
g18
I1
sg19
I0
sg20
I763
sg21
I0
sg22
I0
sg23
I597
sg24
I0
sbssg25
S'>\xcf\x9e\x11\xfc\xd3\xece{)\xebh\xc5U\xf6\xf3'
p2337
ssS'_Users_graememaciver_Projects_GM07-KeyStore_venv_lib_python2_7_site-packages_django_contrib_sites_management'
p2338
(dp2339
g6
(dp2340
g8
S'_Users_graememaciver_Projects_GM07-KeyStore_venv_lib_python2_7_site-packages_django_contrib_sites_management.html'
p2341
sg10
S'/Users/graememaciver/Projects/GM07-KeyStore/venv/lib/python2.7/site-packages/django/contrib/sites/management'
p2342
sg12
g13
(g14
g15
NtRp2343
(dp2344
g18
I1
sg19
I0
sg20
I20
sg21
I0
sg22
I0
sg23
I6
sg24
I0
sbssg25
S'\x7f\x8f\xcc,g\x17\xed\xc1V\xdb\xd7e3\xe5\xe6\xca'
p2345
ssS'_Users_graememaciver_Projects_GM07-KeyStore_venv_lib_python2_7_site-packages_django_utils_six'
p2346
(dp2347
g6
(dp2348
g8
S'_Users_graememaciver_Projects_GM07-KeyStore_venv_lib_python2_7_site-packages_django_utils_six.html'
p2349
sg10
S'/Users/graememaciver/Projects/GM07-KeyStore/venv/lib/python2.7/site-packages/django/utils/six'
p2350
sg12
g13
(g14
g15
NtRp2351
(dp2352
g18
I1
sg19
I0
sg20
I237
sg21
I0
sg22
I0
sg23
I115
sg24
I0
sbssg25
S'\x1f;\xd7\xe3R\xdd\xe4\xd6j\x00\x8as\x86\xbf\x1fW'
p2353
sssS'version'
p2354
S'3.6'
p2355
sS'settings'
p2356
S'\xde\xb5{\xa7\xb8\xe3\xcdO\x90\xe8\xf1\x88~7\xb1\xea'
p2357
sS'format'
p2358
I1
s.